ARM GAS  /tmp/cc3JF8Cu.s 			page 1


   1              		.cpu cortex-m3
   2              		.eabi_attribute 20, 1
   3              		.eabi_attribute 21, 1
   4              		.eabi_attribute 23, 3
   5              		.eabi_attribute 24, 1
   6              		.eabi_attribute 25, 1
   7              		.eabi_attribute 26, 1
   8              		.eabi_attribute 30, 1
   9              		.eabi_attribute 34, 1
  10              		.eabi_attribute 18, 4
  11              		.file	"stm32f1xx_ll_sdmmc.c"
  12              		.text
  13              	.Ltext0:
  14              		.cfi_sections	.debug_frame
  15              		.section	.text.SDMMC_GetCmdError,"ax",%progbits
  16              		.align	1
  17              		.syntax unified
  18              		.thumb
  19              		.thumb_func
  20              		.fpu softvfp
  22              	SDMMC_GetCmdError:
  23              	.LFB103:
  24              		.file 1 "Drivers/STM32F1xx_HAL_Driver/Src/stm32f1xx_ll_sdmmc.c"
   1:Drivers/STM32F1xx_HAL_Driver/Src/stm32f1xx_ll_sdmmc.c **** /**
   2:Drivers/STM32F1xx_HAL_Driver/Src/stm32f1xx_ll_sdmmc.c ****   ******************************************************************************
   3:Drivers/STM32F1xx_HAL_Driver/Src/stm32f1xx_ll_sdmmc.c ****   * @file    stm32f1xx_ll_sdmmc.c
   4:Drivers/STM32F1xx_HAL_Driver/Src/stm32f1xx_ll_sdmmc.c ****   * @author  MCD Application Team
   5:Drivers/STM32F1xx_HAL_Driver/Src/stm32f1xx_ll_sdmmc.c ****   * @brief   SDMMC Low Layer HAL module driver.
   6:Drivers/STM32F1xx_HAL_Driver/Src/stm32f1xx_ll_sdmmc.c ****   *    
   7:Drivers/STM32F1xx_HAL_Driver/Src/stm32f1xx_ll_sdmmc.c ****   *          This file provides firmware functions to manage the following 
   8:Drivers/STM32F1xx_HAL_Driver/Src/stm32f1xx_ll_sdmmc.c ****   *          functionalities of the SDMMC peripheral:
   9:Drivers/STM32F1xx_HAL_Driver/Src/stm32f1xx_ll_sdmmc.c ****   *           + Initialization/de-initialization functions
  10:Drivers/STM32F1xx_HAL_Driver/Src/stm32f1xx_ll_sdmmc.c ****   *           + I/O operation functions
  11:Drivers/STM32F1xx_HAL_Driver/Src/stm32f1xx_ll_sdmmc.c ****   *           + Peripheral Control functions 
  12:Drivers/STM32F1xx_HAL_Driver/Src/stm32f1xx_ll_sdmmc.c ****   *           + Peripheral State functions
  13:Drivers/STM32F1xx_HAL_Driver/Src/stm32f1xx_ll_sdmmc.c ****   *         
  14:Drivers/STM32F1xx_HAL_Driver/Src/stm32f1xx_ll_sdmmc.c ****   @verbatim
  15:Drivers/STM32F1xx_HAL_Driver/Src/stm32f1xx_ll_sdmmc.c ****   ==============================================================================
  16:Drivers/STM32F1xx_HAL_Driver/Src/stm32f1xx_ll_sdmmc.c ****                        ##### SDMMC peripheral features #####
  17:Drivers/STM32F1xx_HAL_Driver/Src/stm32f1xx_ll_sdmmc.c ****   ==============================================================================        
  18:Drivers/STM32F1xx_HAL_Driver/Src/stm32f1xx_ll_sdmmc.c ****     [..] The SD/SDMMC MMC card host interface (SDMMC) provides an interface between the AHB
  19:Drivers/STM32F1xx_HAL_Driver/Src/stm32f1xx_ll_sdmmc.c ****          peripheral bus and MultiMedia cards (MMCs), SD memory cards, SDMMC cards and CE-ATA
  20:Drivers/STM32F1xx_HAL_Driver/Src/stm32f1xx_ll_sdmmc.c ****          devices.
  21:Drivers/STM32F1xx_HAL_Driver/Src/stm32f1xx_ll_sdmmc.c ****     
  22:Drivers/STM32F1xx_HAL_Driver/Src/stm32f1xx_ll_sdmmc.c ****     [..] The SDMMC features include the following:
  23:Drivers/STM32F1xx_HAL_Driver/Src/stm32f1xx_ll_sdmmc.c ****          (+) Full compliance with MultiMedia Card System Specification Version 4.2. Card support
  24:Drivers/STM32F1xx_HAL_Driver/Src/stm32f1xx_ll_sdmmc.c ****              for three different databus modes: 1-bit (default), 4-bit and 8-bit
  25:Drivers/STM32F1xx_HAL_Driver/Src/stm32f1xx_ll_sdmmc.c ****          (+) Full compatibility with previous versions of MultiMedia Cards (forward compatibility)
  26:Drivers/STM32F1xx_HAL_Driver/Src/stm32f1xx_ll_sdmmc.c ****          (+) Full compliance with SD Memory Card Specifications Version 2.0
  27:Drivers/STM32F1xx_HAL_Driver/Src/stm32f1xx_ll_sdmmc.c ****          (+) Full compliance with SD I/O Card Specification Version 2.0: card support for two
  28:Drivers/STM32F1xx_HAL_Driver/Src/stm32f1xx_ll_sdmmc.c ****              different data bus modes: 1-bit (default) and 4-bit
  29:Drivers/STM32F1xx_HAL_Driver/Src/stm32f1xx_ll_sdmmc.c ****          (+) Full support of the CE-ATA features (full compliance with CE-ATA digital protocol
  30:Drivers/STM32F1xx_HAL_Driver/Src/stm32f1xx_ll_sdmmc.c ****              Rev1.1)
  31:Drivers/STM32F1xx_HAL_Driver/Src/stm32f1xx_ll_sdmmc.c ****          (+) Data transfer up to 48 MHz for the 8 bit mode
  32:Drivers/STM32F1xx_HAL_Driver/Src/stm32f1xx_ll_sdmmc.c ****          (+) Data and command output enable signals to control external bidirectional drivers
  33:Drivers/STM32F1xx_HAL_Driver/Src/stm32f1xx_ll_sdmmc.c ****    
  34:Drivers/STM32F1xx_HAL_Driver/Src/stm32f1xx_ll_sdmmc.c ****                            ##### How to use this driver #####
ARM GAS  /tmp/cc3JF8Cu.s 			page 2


  35:Drivers/STM32F1xx_HAL_Driver/Src/stm32f1xx_ll_sdmmc.c ****   ==============================================================================
  36:Drivers/STM32F1xx_HAL_Driver/Src/stm32f1xx_ll_sdmmc.c ****     [..]
  37:Drivers/STM32F1xx_HAL_Driver/Src/stm32f1xx_ll_sdmmc.c ****       This driver is a considered as a driver of service for external devices drivers 
  38:Drivers/STM32F1xx_HAL_Driver/Src/stm32f1xx_ll_sdmmc.c ****       that interfaces with the SDMMC peripheral.
  39:Drivers/STM32F1xx_HAL_Driver/Src/stm32f1xx_ll_sdmmc.c ****       According to the device used (SD card/ MMC card / SDMMC card ...), a set of APIs 
  40:Drivers/STM32F1xx_HAL_Driver/Src/stm32f1xx_ll_sdmmc.c ****       is used in the device's driver to perform SDMMC operations and functionalities.
  41:Drivers/STM32F1xx_HAL_Driver/Src/stm32f1xx_ll_sdmmc.c ****    
  42:Drivers/STM32F1xx_HAL_Driver/Src/stm32f1xx_ll_sdmmc.c ****       This driver is almost transparent for the final user, it is only used to implement other
  43:Drivers/STM32F1xx_HAL_Driver/Src/stm32f1xx_ll_sdmmc.c ****       functionalities of the external device.
  44:Drivers/STM32F1xx_HAL_Driver/Src/stm32f1xx_ll_sdmmc.c ****    
  45:Drivers/STM32F1xx_HAL_Driver/Src/stm32f1xx_ll_sdmmc.c ****     [..]
  46:Drivers/STM32F1xx_HAL_Driver/Src/stm32f1xx_ll_sdmmc.c ****       (+) The SDMMC clock (SDMMCCLK = 48 MHz) is coming from a specific output (MSI, PLLUSB1CLK,
  47:Drivers/STM32F1xx_HAL_Driver/Src/stm32f1xx_ll_sdmmc.c ****           PLLUSB2CLK). Before start working with SDMMC peripheral make sure that the
  48:Drivers/STM32F1xx_HAL_Driver/Src/stm32f1xx_ll_sdmmc.c ****           PLL is well configured.
  49:Drivers/STM32F1xx_HAL_Driver/Src/stm32f1xx_ll_sdmmc.c ****           The SDMMC peripheral uses two clock signals:
  50:Drivers/STM32F1xx_HAL_Driver/Src/stm32f1xx_ll_sdmmc.c ****           (++) SDMMC adapter clock (SDMMCCLK = 48 MHz)
  51:Drivers/STM32F1xx_HAL_Driver/Src/stm32f1xx_ll_sdmmc.c ****           (++) APB2 bus clock (PCLK2)
  52:Drivers/STM32F1xx_HAL_Driver/Src/stm32f1xx_ll_sdmmc.c ****        
  53:Drivers/STM32F1xx_HAL_Driver/Src/stm32f1xx_ll_sdmmc.c ****           -@@- PCLK2 and SDMMC_CK clock frequencies must respect the following condition:
  54:Drivers/STM32F1xx_HAL_Driver/Src/stm32f1xx_ll_sdmmc.c ****                Frequency(PCLK2) >= (3 / 8 x Frequency(SDMMC_CK))
  55:Drivers/STM32F1xx_HAL_Driver/Src/stm32f1xx_ll_sdmmc.c ****   
  56:Drivers/STM32F1xx_HAL_Driver/Src/stm32f1xx_ll_sdmmc.c ****       (+) Enable/Disable peripheral clock using RCC peripheral macros related to SDMMC
  57:Drivers/STM32F1xx_HAL_Driver/Src/stm32f1xx_ll_sdmmc.c ****           peripheral.
  58:Drivers/STM32F1xx_HAL_Driver/Src/stm32f1xx_ll_sdmmc.c **** 
  59:Drivers/STM32F1xx_HAL_Driver/Src/stm32f1xx_ll_sdmmc.c ****       (+) Enable the Power ON State using the SDIO_PowerState_ON() 
  60:Drivers/STM32F1xx_HAL_Driver/Src/stm32f1xx_ll_sdmmc.c ****           function and disable it using the function SDIO_PowerState_OFF().
  61:Drivers/STM32F1xx_HAL_Driver/Src/stm32f1xx_ll_sdmmc.c ****                 
  62:Drivers/STM32F1xx_HAL_Driver/Src/stm32f1xx_ll_sdmmc.c ****       (+) Enable/Disable the clock using the __SDIO_ENABLE()/__SDIO_DISABLE() macros.
  63:Drivers/STM32F1xx_HAL_Driver/Src/stm32f1xx_ll_sdmmc.c ****   
  64:Drivers/STM32F1xx_HAL_Driver/Src/stm32f1xx_ll_sdmmc.c ****       (+) Enable/Disable the peripheral interrupts using the macros __SDIO_ENABLE_IT() 
  65:Drivers/STM32F1xx_HAL_Driver/Src/stm32f1xx_ll_sdmmc.c ****           and __SDIO_DISABLE_IT() if you need to use interrupt mode. 
  66:Drivers/STM32F1xx_HAL_Driver/Src/stm32f1xx_ll_sdmmc.c ****   
  67:Drivers/STM32F1xx_HAL_Driver/Src/stm32f1xx_ll_sdmmc.c ****       (+) When using the DMA mode 
  68:Drivers/STM32F1xx_HAL_Driver/Src/stm32f1xx_ll_sdmmc.c ****           (++) Configure the DMA in the MSP layer of the external device
  69:Drivers/STM32F1xx_HAL_Driver/Src/stm32f1xx_ll_sdmmc.c ****           (++) Active the needed channel Request 
  70:Drivers/STM32F1xx_HAL_Driver/Src/stm32f1xx_ll_sdmmc.c ****           (++) Enable the DMA using __SDIO_DMA_ENABLE() macro or Disable it using the macro
  71:Drivers/STM32F1xx_HAL_Driver/Src/stm32f1xx_ll_sdmmc.c ****                __SDIO_DMA_DISABLE().
  72:Drivers/STM32F1xx_HAL_Driver/Src/stm32f1xx_ll_sdmmc.c ****   
  73:Drivers/STM32F1xx_HAL_Driver/Src/stm32f1xx_ll_sdmmc.c ****       (+) To control the CPSM (Command Path State Machine) and send 
  74:Drivers/STM32F1xx_HAL_Driver/Src/stm32f1xx_ll_sdmmc.c ****           commands to the card use the SDIO_SendCommand(), 
  75:Drivers/STM32F1xx_HAL_Driver/Src/stm32f1xx_ll_sdmmc.c ****           SDIO_GetCommandResponse() and SDIO_GetResponse() functions. First, user has
  76:Drivers/STM32F1xx_HAL_Driver/Src/stm32f1xx_ll_sdmmc.c ****           to fill the command structure (pointer to SDIO_CmdInitTypeDef) according 
  77:Drivers/STM32F1xx_HAL_Driver/Src/stm32f1xx_ll_sdmmc.c ****           to the selected command to be sent.
  78:Drivers/STM32F1xx_HAL_Driver/Src/stm32f1xx_ll_sdmmc.c ****           The parameters that should be filled are:
  79:Drivers/STM32F1xx_HAL_Driver/Src/stm32f1xx_ll_sdmmc.c ****            (++) Command Argument
  80:Drivers/STM32F1xx_HAL_Driver/Src/stm32f1xx_ll_sdmmc.c ****            (++) Command Index
  81:Drivers/STM32F1xx_HAL_Driver/Src/stm32f1xx_ll_sdmmc.c ****            (++) Command Response type
  82:Drivers/STM32F1xx_HAL_Driver/Src/stm32f1xx_ll_sdmmc.c ****            (++) Command Wait
  83:Drivers/STM32F1xx_HAL_Driver/Src/stm32f1xx_ll_sdmmc.c ****            (++) CPSM Status (Enable or Disable).
  84:Drivers/STM32F1xx_HAL_Driver/Src/stm32f1xx_ll_sdmmc.c ****   
  85:Drivers/STM32F1xx_HAL_Driver/Src/stm32f1xx_ll_sdmmc.c ****           -@@- To check if the command is well received, read the SDIO_CMDRESP
  86:Drivers/STM32F1xx_HAL_Driver/Src/stm32f1xx_ll_sdmmc.c ****               register using the SDIO_GetCommandResponse().
  87:Drivers/STM32F1xx_HAL_Driver/Src/stm32f1xx_ll_sdmmc.c ****               The SDMMC responses registers (SDIO_RESP1 to SDIO_RESP2), use the
  88:Drivers/STM32F1xx_HAL_Driver/Src/stm32f1xx_ll_sdmmc.c ****               SDIO_GetResponse() function.
  89:Drivers/STM32F1xx_HAL_Driver/Src/stm32f1xx_ll_sdmmc.c ****   
  90:Drivers/STM32F1xx_HAL_Driver/Src/stm32f1xx_ll_sdmmc.c ****       (+) To control the DPSM (Data Path State Machine) and send/receive 
  91:Drivers/STM32F1xx_HAL_Driver/Src/stm32f1xx_ll_sdmmc.c ****            data to/from the card use the SDIO_DataConfig(), SDIO_GetDataCounter(), 
ARM GAS  /tmp/cc3JF8Cu.s 			page 3


  92:Drivers/STM32F1xx_HAL_Driver/Src/stm32f1xx_ll_sdmmc.c ****           SDIO_ReadFIFO(), SDIO_WriteFIFO() and SDIO_GetFIFOCount() functions.
  93:Drivers/STM32F1xx_HAL_Driver/Src/stm32f1xx_ll_sdmmc.c ****   
  94:Drivers/STM32F1xx_HAL_Driver/Src/stm32f1xx_ll_sdmmc.c ****     *** Read Operations ***
  95:Drivers/STM32F1xx_HAL_Driver/Src/stm32f1xx_ll_sdmmc.c ****     =======================
  96:Drivers/STM32F1xx_HAL_Driver/Src/stm32f1xx_ll_sdmmc.c ****     [..]
  97:Drivers/STM32F1xx_HAL_Driver/Src/stm32f1xx_ll_sdmmc.c ****       (#) First, user has to fill the data structure (pointer to
  98:Drivers/STM32F1xx_HAL_Driver/Src/stm32f1xx_ll_sdmmc.c ****           SDIO_DataInitTypeDef) according to the selected data type to be received.
  99:Drivers/STM32F1xx_HAL_Driver/Src/stm32f1xx_ll_sdmmc.c ****           The parameters that should be filled are:
 100:Drivers/STM32F1xx_HAL_Driver/Src/stm32f1xx_ll_sdmmc.c ****            (++) Data TimeOut
 101:Drivers/STM32F1xx_HAL_Driver/Src/stm32f1xx_ll_sdmmc.c ****            (++) Data Length
 102:Drivers/STM32F1xx_HAL_Driver/Src/stm32f1xx_ll_sdmmc.c ****            (++) Data Block size
 103:Drivers/STM32F1xx_HAL_Driver/Src/stm32f1xx_ll_sdmmc.c ****            (++) Data Transfer direction: should be from card (To SDMMC)
 104:Drivers/STM32F1xx_HAL_Driver/Src/stm32f1xx_ll_sdmmc.c ****            (++) Data Transfer mode
 105:Drivers/STM32F1xx_HAL_Driver/Src/stm32f1xx_ll_sdmmc.c ****            (++) DPSM Status (Enable or Disable)
 106:Drivers/STM32F1xx_HAL_Driver/Src/stm32f1xx_ll_sdmmc.c ****                                      
 107:Drivers/STM32F1xx_HAL_Driver/Src/stm32f1xx_ll_sdmmc.c ****       (#) Configure the SDMMC resources to receive the data from the card
 108:Drivers/STM32F1xx_HAL_Driver/Src/stm32f1xx_ll_sdmmc.c ****           according to selected transfer mode (Refer to Step 8, 9 and 10).
 109:Drivers/STM32F1xx_HAL_Driver/Src/stm32f1xx_ll_sdmmc.c ****   
 110:Drivers/STM32F1xx_HAL_Driver/Src/stm32f1xx_ll_sdmmc.c ****       (#) Send the selected Read command (refer to step 11).
 111:Drivers/STM32F1xx_HAL_Driver/Src/stm32f1xx_ll_sdmmc.c ****                     
 112:Drivers/STM32F1xx_HAL_Driver/Src/stm32f1xx_ll_sdmmc.c ****       (#) Use the SDIO flags/interrupts to check the transfer status.
 113:Drivers/STM32F1xx_HAL_Driver/Src/stm32f1xx_ll_sdmmc.c ****   
 114:Drivers/STM32F1xx_HAL_Driver/Src/stm32f1xx_ll_sdmmc.c ****     *** Write Operations ***
 115:Drivers/STM32F1xx_HAL_Driver/Src/stm32f1xx_ll_sdmmc.c ****     ========================
 116:Drivers/STM32F1xx_HAL_Driver/Src/stm32f1xx_ll_sdmmc.c ****     [..]
 117:Drivers/STM32F1xx_HAL_Driver/Src/stm32f1xx_ll_sdmmc.c ****      (#) First, user has to fill the data structure (pointer to
 118:Drivers/STM32F1xx_HAL_Driver/Src/stm32f1xx_ll_sdmmc.c ****          SDIO_DataInitTypeDef) according to the selected data type to be received.
 119:Drivers/STM32F1xx_HAL_Driver/Src/stm32f1xx_ll_sdmmc.c ****          The parameters that should be filled are:
 120:Drivers/STM32F1xx_HAL_Driver/Src/stm32f1xx_ll_sdmmc.c ****           (++) Data TimeOut
 121:Drivers/STM32F1xx_HAL_Driver/Src/stm32f1xx_ll_sdmmc.c ****           (++) Data Length
 122:Drivers/STM32F1xx_HAL_Driver/Src/stm32f1xx_ll_sdmmc.c ****           (++) Data Block size
 123:Drivers/STM32F1xx_HAL_Driver/Src/stm32f1xx_ll_sdmmc.c ****           (++) Data Transfer direction:  should be to card (To CARD)
 124:Drivers/STM32F1xx_HAL_Driver/Src/stm32f1xx_ll_sdmmc.c ****           (++) Data Transfer mode
 125:Drivers/STM32F1xx_HAL_Driver/Src/stm32f1xx_ll_sdmmc.c ****           (++) DPSM Status (Enable or Disable)
 126:Drivers/STM32F1xx_HAL_Driver/Src/stm32f1xx_ll_sdmmc.c ****   
 127:Drivers/STM32F1xx_HAL_Driver/Src/stm32f1xx_ll_sdmmc.c ****      (#) Configure the SDMMC resources to send the data to the card according to 
 128:Drivers/STM32F1xx_HAL_Driver/Src/stm32f1xx_ll_sdmmc.c ****          selected transfer mode.
 129:Drivers/STM32F1xx_HAL_Driver/Src/stm32f1xx_ll_sdmmc.c ****                      
 130:Drivers/STM32F1xx_HAL_Driver/Src/stm32f1xx_ll_sdmmc.c ****      (#) Send the selected Write command.
 131:Drivers/STM32F1xx_HAL_Driver/Src/stm32f1xx_ll_sdmmc.c ****                     
 132:Drivers/STM32F1xx_HAL_Driver/Src/stm32f1xx_ll_sdmmc.c ****      (#) Use the SDIO flags/interrupts to check the transfer status.
 133:Drivers/STM32F1xx_HAL_Driver/Src/stm32f1xx_ll_sdmmc.c ****        
 134:Drivers/STM32F1xx_HAL_Driver/Src/stm32f1xx_ll_sdmmc.c ****     *** Command management operations ***
 135:Drivers/STM32F1xx_HAL_Driver/Src/stm32f1xx_ll_sdmmc.c ****     =====================================
 136:Drivers/STM32F1xx_HAL_Driver/Src/stm32f1xx_ll_sdmmc.c ****     [..]
 137:Drivers/STM32F1xx_HAL_Driver/Src/stm32f1xx_ll_sdmmc.c ****      (#) The commands used for Read/Write/Erase operations are managed in 
 138:Drivers/STM32F1xx_HAL_Driver/Src/stm32f1xx_ll_sdmmc.c ****          separate functions. 
 139:Drivers/STM32F1xx_HAL_Driver/Src/stm32f1xx_ll_sdmmc.c ****          Each function allows to send the needed command with the related argument,
 140:Drivers/STM32F1xx_HAL_Driver/Src/stm32f1xx_ll_sdmmc.c ****          then check the response.
 141:Drivers/STM32F1xx_HAL_Driver/Src/stm32f1xx_ll_sdmmc.c ****          By the same approach, you could implement a command and check the response.
 142:Drivers/STM32F1xx_HAL_Driver/Src/stm32f1xx_ll_sdmmc.c ****   
 143:Drivers/STM32F1xx_HAL_Driver/Src/stm32f1xx_ll_sdmmc.c ****   @endverbatim
 144:Drivers/STM32F1xx_HAL_Driver/Src/stm32f1xx_ll_sdmmc.c ****   ******************************************************************************
 145:Drivers/STM32F1xx_HAL_Driver/Src/stm32f1xx_ll_sdmmc.c ****   * @attention
 146:Drivers/STM32F1xx_HAL_Driver/Src/stm32f1xx_ll_sdmmc.c ****   *
 147:Drivers/STM32F1xx_HAL_Driver/Src/stm32f1xx_ll_sdmmc.c ****   * <h2><center>&copy; Copyright (c) 2018 STMicroelectronics.
 148:Drivers/STM32F1xx_HAL_Driver/Src/stm32f1xx_ll_sdmmc.c ****   * All rights reserved.</center></h2>
ARM GAS  /tmp/cc3JF8Cu.s 			page 4


 149:Drivers/STM32F1xx_HAL_Driver/Src/stm32f1xx_ll_sdmmc.c ****   *
 150:Drivers/STM32F1xx_HAL_Driver/Src/stm32f1xx_ll_sdmmc.c ****   * This software component is licensed by ST under BSD 3-Clause license,
 151:Drivers/STM32F1xx_HAL_Driver/Src/stm32f1xx_ll_sdmmc.c ****   * the "License"; You may not use this file except in compliance with the
 152:Drivers/STM32F1xx_HAL_Driver/Src/stm32f1xx_ll_sdmmc.c ****   * License. You may obtain a copy of the License at:
 153:Drivers/STM32F1xx_HAL_Driver/Src/stm32f1xx_ll_sdmmc.c ****   *                       opensource.org/licenses/BSD-3-Clause
 154:Drivers/STM32F1xx_HAL_Driver/Src/stm32f1xx_ll_sdmmc.c ****   *
 155:Drivers/STM32F1xx_HAL_Driver/Src/stm32f1xx_ll_sdmmc.c ****   ******************************************************************************
 156:Drivers/STM32F1xx_HAL_Driver/Src/stm32f1xx_ll_sdmmc.c ****   */ 
 157:Drivers/STM32F1xx_HAL_Driver/Src/stm32f1xx_ll_sdmmc.c **** 
 158:Drivers/STM32F1xx_HAL_Driver/Src/stm32f1xx_ll_sdmmc.c **** /* Includes ------------------------------------------------------------------*/
 159:Drivers/STM32F1xx_HAL_Driver/Src/stm32f1xx_ll_sdmmc.c **** #include "stm32f1xx_hal.h"
 160:Drivers/STM32F1xx_HAL_Driver/Src/stm32f1xx_ll_sdmmc.c **** 
 161:Drivers/STM32F1xx_HAL_Driver/Src/stm32f1xx_ll_sdmmc.c **** #if defined(SDIO)
 162:Drivers/STM32F1xx_HAL_Driver/Src/stm32f1xx_ll_sdmmc.c **** 
 163:Drivers/STM32F1xx_HAL_Driver/Src/stm32f1xx_ll_sdmmc.c **** /** @addtogroup STM32F1xx_HAL_Driver
 164:Drivers/STM32F1xx_HAL_Driver/Src/stm32f1xx_ll_sdmmc.c ****   * @{
 165:Drivers/STM32F1xx_HAL_Driver/Src/stm32f1xx_ll_sdmmc.c ****   */
 166:Drivers/STM32F1xx_HAL_Driver/Src/stm32f1xx_ll_sdmmc.c **** 
 167:Drivers/STM32F1xx_HAL_Driver/Src/stm32f1xx_ll_sdmmc.c **** /** @defgroup SDMMC_LL SDMMC Low Layer
 168:Drivers/STM32F1xx_HAL_Driver/Src/stm32f1xx_ll_sdmmc.c ****   * @brief Low layer module for SD
 169:Drivers/STM32F1xx_HAL_Driver/Src/stm32f1xx_ll_sdmmc.c ****   * @{
 170:Drivers/STM32F1xx_HAL_Driver/Src/stm32f1xx_ll_sdmmc.c ****   */
 171:Drivers/STM32F1xx_HAL_Driver/Src/stm32f1xx_ll_sdmmc.c **** 
 172:Drivers/STM32F1xx_HAL_Driver/Src/stm32f1xx_ll_sdmmc.c **** #if defined(HAL_SD_MODULE_ENABLED) || defined(HAL_MMC_MODULE_ENABLED)
 173:Drivers/STM32F1xx_HAL_Driver/Src/stm32f1xx_ll_sdmmc.c **** 
 174:Drivers/STM32F1xx_HAL_Driver/Src/stm32f1xx_ll_sdmmc.c **** /* Private typedef -----------------------------------------------------------*/
 175:Drivers/STM32F1xx_HAL_Driver/Src/stm32f1xx_ll_sdmmc.c **** /* Private define ------------------------------------------------------------*/
 176:Drivers/STM32F1xx_HAL_Driver/Src/stm32f1xx_ll_sdmmc.c **** /* Private macro -------------------------------------------------------------*/
 177:Drivers/STM32F1xx_HAL_Driver/Src/stm32f1xx_ll_sdmmc.c **** /* Private variables ---------------------------------------------------------*/
 178:Drivers/STM32F1xx_HAL_Driver/Src/stm32f1xx_ll_sdmmc.c **** /* Private function prototypes -----------------------------------------------*/
 179:Drivers/STM32F1xx_HAL_Driver/Src/stm32f1xx_ll_sdmmc.c **** static uint32_t SDMMC_GetCmdError(SDIO_TypeDef *SDIOx);
 180:Drivers/STM32F1xx_HAL_Driver/Src/stm32f1xx_ll_sdmmc.c **** static uint32_t SDMMC_GetCmdResp1(SDIO_TypeDef *SDIOx, uint8_t SD_CMD, uint32_t Timeout);
 181:Drivers/STM32F1xx_HAL_Driver/Src/stm32f1xx_ll_sdmmc.c **** static uint32_t SDMMC_GetCmdResp2(SDIO_TypeDef *SDIOx);
 182:Drivers/STM32F1xx_HAL_Driver/Src/stm32f1xx_ll_sdmmc.c **** static uint32_t SDMMC_GetCmdResp3(SDIO_TypeDef *SDIOx);
 183:Drivers/STM32F1xx_HAL_Driver/Src/stm32f1xx_ll_sdmmc.c **** static uint32_t SDMMC_GetCmdResp7(SDIO_TypeDef *SDIOx);
 184:Drivers/STM32F1xx_HAL_Driver/Src/stm32f1xx_ll_sdmmc.c **** static uint32_t SDMMC_GetCmdResp6(SDIO_TypeDef *SDIOx, uint8_t SD_CMD, uint16_t *pRCA);
 185:Drivers/STM32F1xx_HAL_Driver/Src/stm32f1xx_ll_sdmmc.c **** 
 186:Drivers/STM32F1xx_HAL_Driver/Src/stm32f1xx_ll_sdmmc.c **** /* Exported functions --------------------------------------------------------*/
 187:Drivers/STM32F1xx_HAL_Driver/Src/stm32f1xx_ll_sdmmc.c **** 
 188:Drivers/STM32F1xx_HAL_Driver/Src/stm32f1xx_ll_sdmmc.c **** /** @defgroup SDMMC_LL_Exported_Functions SDMMC Low Layer Exported Functions
 189:Drivers/STM32F1xx_HAL_Driver/Src/stm32f1xx_ll_sdmmc.c ****   * @{
 190:Drivers/STM32F1xx_HAL_Driver/Src/stm32f1xx_ll_sdmmc.c ****   */
 191:Drivers/STM32F1xx_HAL_Driver/Src/stm32f1xx_ll_sdmmc.c **** 
 192:Drivers/STM32F1xx_HAL_Driver/Src/stm32f1xx_ll_sdmmc.c **** /** @defgroup HAL_SDMMC_LL_Group1 Initialization de-initialization functions 
 193:Drivers/STM32F1xx_HAL_Driver/Src/stm32f1xx_ll_sdmmc.c ****  *  @brief    Initialization and Configuration functions 
 194:Drivers/STM32F1xx_HAL_Driver/Src/stm32f1xx_ll_sdmmc.c ****  *
 195:Drivers/STM32F1xx_HAL_Driver/Src/stm32f1xx_ll_sdmmc.c **** @verbatim    
 196:Drivers/STM32F1xx_HAL_Driver/Src/stm32f1xx_ll_sdmmc.c ****  ===============================================================================
 197:Drivers/STM32F1xx_HAL_Driver/Src/stm32f1xx_ll_sdmmc.c ****               ##### Initialization/de-initialization functions #####
 198:Drivers/STM32F1xx_HAL_Driver/Src/stm32f1xx_ll_sdmmc.c ****  ===============================================================================
 199:Drivers/STM32F1xx_HAL_Driver/Src/stm32f1xx_ll_sdmmc.c ****     [..]  This section provides functions allowing to:
 200:Drivers/STM32F1xx_HAL_Driver/Src/stm32f1xx_ll_sdmmc.c ****  
 201:Drivers/STM32F1xx_HAL_Driver/Src/stm32f1xx_ll_sdmmc.c **** @endverbatim
 202:Drivers/STM32F1xx_HAL_Driver/Src/stm32f1xx_ll_sdmmc.c ****   * @{
 203:Drivers/STM32F1xx_HAL_Driver/Src/stm32f1xx_ll_sdmmc.c ****   */
 204:Drivers/STM32F1xx_HAL_Driver/Src/stm32f1xx_ll_sdmmc.c **** 
 205:Drivers/STM32F1xx_HAL_Driver/Src/stm32f1xx_ll_sdmmc.c **** /**
ARM GAS  /tmp/cc3JF8Cu.s 			page 5


 206:Drivers/STM32F1xx_HAL_Driver/Src/stm32f1xx_ll_sdmmc.c ****   * @brief  Initializes the SDMMC according to the specified
 207:Drivers/STM32F1xx_HAL_Driver/Src/stm32f1xx_ll_sdmmc.c ****   *         parameters in the SDMMC_InitTypeDef and create the associated handle.
 208:Drivers/STM32F1xx_HAL_Driver/Src/stm32f1xx_ll_sdmmc.c ****   * @param  SDIOx: Pointer to SDMMC register base
 209:Drivers/STM32F1xx_HAL_Driver/Src/stm32f1xx_ll_sdmmc.c ****   * @param  Init: SDMMC initialization structure   
 210:Drivers/STM32F1xx_HAL_Driver/Src/stm32f1xx_ll_sdmmc.c ****   * @retval HAL status
 211:Drivers/STM32F1xx_HAL_Driver/Src/stm32f1xx_ll_sdmmc.c ****   */
 212:Drivers/STM32F1xx_HAL_Driver/Src/stm32f1xx_ll_sdmmc.c **** HAL_StatusTypeDef SDIO_Init(SDIO_TypeDef *SDIOx, SDIO_InitTypeDef Init)
 213:Drivers/STM32F1xx_HAL_Driver/Src/stm32f1xx_ll_sdmmc.c **** {
 214:Drivers/STM32F1xx_HAL_Driver/Src/stm32f1xx_ll_sdmmc.c ****   uint32_t tmpreg = 0;
 215:Drivers/STM32F1xx_HAL_Driver/Src/stm32f1xx_ll_sdmmc.c **** 
 216:Drivers/STM32F1xx_HAL_Driver/Src/stm32f1xx_ll_sdmmc.c ****   /* Check the parameters */
 217:Drivers/STM32F1xx_HAL_Driver/Src/stm32f1xx_ll_sdmmc.c ****   assert_param(IS_SDIO_ALL_INSTANCE(SDIOx));
 218:Drivers/STM32F1xx_HAL_Driver/Src/stm32f1xx_ll_sdmmc.c ****   assert_param(IS_SDIO_CLOCK_EDGE(Init.ClockEdge)); 
 219:Drivers/STM32F1xx_HAL_Driver/Src/stm32f1xx_ll_sdmmc.c ****   assert_param(IS_SDIO_CLOCK_BYPASS(Init.ClockBypass));
 220:Drivers/STM32F1xx_HAL_Driver/Src/stm32f1xx_ll_sdmmc.c ****   assert_param(IS_SDIO_CLOCK_POWER_SAVE(Init.ClockPowerSave));
 221:Drivers/STM32F1xx_HAL_Driver/Src/stm32f1xx_ll_sdmmc.c ****   assert_param(IS_SDIO_BUS_WIDE(Init.BusWide));
 222:Drivers/STM32F1xx_HAL_Driver/Src/stm32f1xx_ll_sdmmc.c ****   assert_param(IS_SDIO_HARDWARE_FLOW_CONTROL(Init.HardwareFlowControl));
 223:Drivers/STM32F1xx_HAL_Driver/Src/stm32f1xx_ll_sdmmc.c ****   assert_param(IS_SDIO_CLKDIV(Init.ClockDiv));
 224:Drivers/STM32F1xx_HAL_Driver/Src/stm32f1xx_ll_sdmmc.c ****   
 225:Drivers/STM32F1xx_HAL_Driver/Src/stm32f1xx_ll_sdmmc.c ****   /* Set SDMMC configuration parameters */
 226:Drivers/STM32F1xx_HAL_Driver/Src/stm32f1xx_ll_sdmmc.c ****   tmpreg |= (Init.ClockEdge           |\
 227:Drivers/STM32F1xx_HAL_Driver/Src/stm32f1xx_ll_sdmmc.c ****              Init.ClockBypass         |\
 228:Drivers/STM32F1xx_HAL_Driver/Src/stm32f1xx_ll_sdmmc.c ****              Init.ClockPowerSave      |\
 229:Drivers/STM32F1xx_HAL_Driver/Src/stm32f1xx_ll_sdmmc.c ****              Init.BusWide             |\
 230:Drivers/STM32F1xx_HAL_Driver/Src/stm32f1xx_ll_sdmmc.c ****              Init.HardwareFlowControl |\
 231:Drivers/STM32F1xx_HAL_Driver/Src/stm32f1xx_ll_sdmmc.c ****              Init.ClockDiv
 232:Drivers/STM32F1xx_HAL_Driver/Src/stm32f1xx_ll_sdmmc.c ****              ); 
 233:Drivers/STM32F1xx_HAL_Driver/Src/stm32f1xx_ll_sdmmc.c ****   
 234:Drivers/STM32F1xx_HAL_Driver/Src/stm32f1xx_ll_sdmmc.c ****   /* Write to SDMMC CLKCR */
 235:Drivers/STM32F1xx_HAL_Driver/Src/stm32f1xx_ll_sdmmc.c ****   MODIFY_REG(SDIOx->CLKCR, CLKCR_CLEAR_MASK, tmpreg);  
 236:Drivers/STM32F1xx_HAL_Driver/Src/stm32f1xx_ll_sdmmc.c **** 
 237:Drivers/STM32F1xx_HAL_Driver/Src/stm32f1xx_ll_sdmmc.c ****   return HAL_OK;
 238:Drivers/STM32F1xx_HAL_Driver/Src/stm32f1xx_ll_sdmmc.c **** }
 239:Drivers/STM32F1xx_HAL_Driver/Src/stm32f1xx_ll_sdmmc.c **** 
 240:Drivers/STM32F1xx_HAL_Driver/Src/stm32f1xx_ll_sdmmc.c **** 
 241:Drivers/STM32F1xx_HAL_Driver/Src/stm32f1xx_ll_sdmmc.c **** /**
 242:Drivers/STM32F1xx_HAL_Driver/Src/stm32f1xx_ll_sdmmc.c ****   * @}
 243:Drivers/STM32F1xx_HAL_Driver/Src/stm32f1xx_ll_sdmmc.c ****   */
 244:Drivers/STM32F1xx_HAL_Driver/Src/stm32f1xx_ll_sdmmc.c **** 
 245:Drivers/STM32F1xx_HAL_Driver/Src/stm32f1xx_ll_sdmmc.c **** /** @defgroup HAL_SDMMC_LL_Group2 IO operation functions 
 246:Drivers/STM32F1xx_HAL_Driver/Src/stm32f1xx_ll_sdmmc.c ****  *  @brief   Data transfers functions 
 247:Drivers/STM32F1xx_HAL_Driver/Src/stm32f1xx_ll_sdmmc.c ****  *
 248:Drivers/STM32F1xx_HAL_Driver/Src/stm32f1xx_ll_sdmmc.c **** @verbatim   
 249:Drivers/STM32F1xx_HAL_Driver/Src/stm32f1xx_ll_sdmmc.c ****  ===============================================================================
 250:Drivers/STM32F1xx_HAL_Driver/Src/stm32f1xx_ll_sdmmc.c ****                       ##### I/O operation functions #####
 251:Drivers/STM32F1xx_HAL_Driver/Src/stm32f1xx_ll_sdmmc.c ****  ===============================================================================  
 252:Drivers/STM32F1xx_HAL_Driver/Src/stm32f1xx_ll_sdmmc.c ****     [..]
 253:Drivers/STM32F1xx_HAL_Driver/Src/stm32f1xx_ll_sdmmc.c ****     This subsection provides a set of functions allowing to manage the SDMMC data 
 254:Drivers/STM32F1xx_HAL_Driver/Src/stm32f1xx_ll_sdmmc.c ****     transfers.
 255:Drivers/STM32F1xx_HAL_Driver/Src/stm32f1xx_ll_sdmmc.c **** 
 256:Drivers/STM32F1xx_HAL_Driver/Src/stm32f1xx_ll_sdmmc.c **** @endverbatim
 257:Drivers/STM32F1xx_HAL_Driver/Src/stm32f1xx_ll_sdmmc.c ****   * @{
 258:Drivers/STM32F1xx_HAL_Driver/Src/stm32f1xx_ll_sdmmc.c ****   */
 259:Drivers/STM32F1xx_HAL_Driver/Src/stm32f1xx_ll_sdmmc.c **** 
 260:Drivers/STM32F1xx_HAL_Driver/Src/stm32f1xx_ll_sdmmc.c **** /**
 261:Drivers/STM32F1xx_HAL_Driver/Src/stm32f1xx_ll_sdmmc.c ****   * @brief  Read data (word) from Rx FIFO in blocking mode (polling) 
 262:Drivers/STM32F1xx_HAL_Driver/Src/stm32f1xx_ll_sdmmc.c ****   * @param  SDIOx: Pointer to SDMMC register base
ARM GAS  /tmp/cc3JF8Cu.s 			page 6


 263:Drivers/STM32F1xx_HAL_Driver/Src/stm32f1xx_ll_sdmmc.c ****   * @retval HAL status
 264:Drivers/STM32F1xx_HAL_Driver/Src/stm32f1xx_ll_sdmmc.c ****   */
 265:Drivers/STM32F1xx_HAL_Driver/Src/stm32f1xx_ll_sdmmc.c **** uint32_t SDIO_ReadFIFO(SDIO_TypeDef *SDIOx)
 266:Drivers/STM32F1xx_HAL_Driver/Src/stm32f1xx_ll_sdmmc.c **** {
 267:Drivers/STM32F1xx_HAL_Driver/Src/stm32f1xx_ll_sdmmc.c ****   /* Read data from Rx FIFO */ 
 268:Drivers/STM32F1xx_HAL_Driver/Src/stm32f1xx_ll_sdmmc.c ****   return (SDIOx->FIFO);
 269:Drivers/STM32F1xx_HAL_Driver/Src/stm32f1xx_ll_sdmmc.c **** }
 270:Drivers/STM32F1xx_HAL_Driver/Src/stm32f1xx_ll_sdmmc.c **** 
 271:Drivers/STM32F1xx_HAL_Driver/Src/stm32f1xx_ll_sdmmc.c **** /**
 272:Drivers/STM32F1xx_HAL_Driver/Src/stm32f1xx_ll_sdmmc.c ****   * @brief  Write data (word) to Tx FIFO in blocking mode (polling) 
 273:Drivers/STM32F1xx_HAL_Driver/Src/stm32f1xx_ll_sdmmc.c ****   * @param  SDIOx: Pointer to SDMMC register base
 274:Drivers/STM32F1xx_HAL_Driver/Src/stm32f1xx_ll_sdmmc.c ****   * @param  pWriteData: pointer to data to write
 275:Drivers/STM32F1xx_HAL_Driver/Src/stm32f1xx_ll_sdmmc.c ****   * @retval HAL status
 276:Drivers/STM32F1xx_HAL_Driver/Src/stm32f1xx_ll_sdmmc.c ****   */
 277:Drivers/STM32F1xx_HAL_Driver/Src/stm32f1xx_ll_sdmmc.c **** HAL_StatusTypeDef SDIO_WriteFIFO(SDIO_TypeDef *SDIOx, uint32_t *pWriteData)
 278:Drivers/STM32F1xx_HAL_Driver/Src/stm32f1xx_ll_sdmmc.c **** { 
 279:Drivers/STM32F1xx_HAL_Driver/Src/stm32f1xx_ll_sdmmc.c ****   /* Write data to FIFO */ 
 280:Drivers/STM32F1xx_HAL_Driver/Src/stm32f1xx_ll_sdmmc.c ****   SDIOx->FIFO = *pWriteData;
 281:Drivers/STM32F1xx_HAL_Driver/Src/stm32f1xx_ll_sdmmc.c **** 
 282:Drivers/STM32F1xx_HAL_Driver/Src/stm32f1xx_ll_sdmmc.c ****   return HAL_OK;
 283:Drivers/STM32F1xx_HAL_Driver/Src/stm32f1xx_ll_sdmmc.c **** }
 284:Drivers/STM32F1xx_HAL_Driver/Src/stm32f1xx_ll_sdmmc.c **** 
 285:Drivers/STM32F1xx_HAL_Driver/Src/stm32f1xx_ll_sdmmc.c **** /**
 286:Drivers/STM32F1xx_HAL_Driver/Src/stm32f1xx_ll_sdmmc.c ****   * @}
 287:Drivers/STM32F1xx_HAL_Driver/Src/stm32f1xx_ll_sdmmc.c ****   */
 288:Drivers/STM32F1xx_HAL_Driver/Src/stm32f1xx_ll_sdmmc.c **** 
 289:Drivers/STM32F1xx_HAL_Driver/Src/stm32f1xx_ll_sdmmc.c **** /** @defgroup HAL_SDMMC_LL_Group3 Peripheral Control functions 
 290:Drivers/STM32F1xx_HAL_Driver/Src/stm32f1xx_ll_sdmmc.c ****  *  @brief   management functions 
 291:Drivers/STM32F1xx_HAL_Driver/Src/stm32f1xx_ll_sdmmc.c ****  *
 292:Drivers/STM32F1xx_HAL_Driver/Src/stm32f1xx_ll_sdmmc.c **** @verbatim   
 293:Drivers/STM32F1xx_HAL_Driver/Src/stm32f1xx_ll_sdmmc.c ****  ===============================================================================
 294:Drivers/STM32F1xx_HAL_Driver/Src/stm32f1xx_ll_sdmmc.c ****                       ##### Peripheral Control functions #####
 295:Drivers/STM32F1xx_HAL_Driver/Src/stm32f1xx_ll_sdmmc.c ****  ===============================================================================  
 296:Drivers/STM32F1xx_HAL_Driver/Src/stm32f1xx_ll_sdmmc.c ****     [..]
 297:Drivers/STM32F1xx_HAL_Driver/Src/stm32f1xx_ll_sdmmc.c ****     This subsection provides a set of functions allowing to control the SDMMC data 
 298:Drivers/STM32F1xx_HAL_Driver/Src/stm32f1xx_ll_sdmmc.c ****     transfers.
 299:Drivers/STM32F1xx_HAL_Driver/Src/stm32f1xx_ll_sdmmc.c **** 
 300:Drivers/STM32F1xx_HAL_Driver/Src/stm32f1xx_ll_sdmmc.c **** @endverbatim
 301:Drivers/STM32F1xx_HAL_Driver/Src/stm32f1xx_ll_sdmmc.c ****   * @{
 302:Drivers/STM32F1xx_HAL_Driver/Src/stm32f1xx_ll_sdmmc.c ****   */
 303:Drivers/STM32F1xx_HAL_Driver/Src/stm32f1xx_ll_sdmmc.c **** 
 304:Drivers/STM32F1xx_HAL_Driver/Src/stm32f1xx_ll_sdmmc.c **** /**
 305:Drivers/STM32F1xx_HAL_Driver/Src/stm32f1xx_ll_sdmmc.c ****   * @brief  Set SDMMC Power state to ON. 
 306:Drivers/STM32F1xx_HAL_Driver/Src/stm32f1xx_ll_sdmmc.c ****   * @param  SDIOx: Pointer to SDMMC register base
 307:Drivers/STM32F1xx_HAL_Driver/Src/stm32f1xx_ll_sdmmc.c ****   * @retval HAL status
 308:Drivers/STM32F1xx_HAL_Driver/Src/stm32f1xx_ll_sdmmc.c ****   */
 309:Drivers/STM32F1xx_HAL_Driver/Src/stm32f1xx_ll_sdmmc.c **** HAL_StatusTypeDef SDIO_PowerState_ON(SDIO_TypeDef *SDIOx)
 310:Drivers/STM32F1xx_HAL_Driver/Src/stm32f1xx_ll_sdmmc.c **** {  
 311:Drivers/STM32F1xx_HAL_Driver/Src/stm32f1xx_ll_sdmmc.c ****   /* Set power state to ON */ 
 312:Drivers/STM32F1xx_HAL_Driver/Src/stm32f1xx_ll_sdmmc.c ****   SDIOx->POWER = SDIO_POWER_PWRCTRL;
 313:Drivers/STM32F1xx_HAL_Driver/Src/stm32f1xx_ll_sdmmc.c **** 
 314:Drivers/STM32F1xx_HAL_Driver/Src/stm32f1xx_ll_sdmmc.c ****   /* 1ms: required power up waiting time before starting the SD initialization
 315:Drivers/STM32F1xx_HAL_Driver/Src/stm32f1xx_ll_sdmmc.c ****   sequence */
 316:Drivers/STM32F1xx_HAL_Driver/Src/stm32f1xx_ll_sdmmc.c ****   HAL_Delay(2);
 317:Drivers/STM32F1xx_HAL_Driver/Src/stm32f1xx_ll_sdmmc.c ****   
 318:Drivers/STM32F1xx_HAL_Driver/Src/stm32f1xx_ll_sdmmc.c ****   return HAL_OK;
 319:Drivers/STM32F1xx_HAL_Driver/Src/stm32f1xx_ll_sdmmc.c **** }
ARM GAS  /tmp/cc3JF8Cu.s 			page 7


 320:Drivers/STM32F1xx_HAL_Driver/Src/stm32f1xx_ll_sdmmc.c **** 
 321:Drivers/STM32F1xx_HAL_Driver/Src/stm32f1xx_ll_sdmmc.c **** /**
 322:Drivers/STM32F1xx_HAL_Driver/Src/stm32f1xx_ll_sdmmc.c ****   * @brief  Set SDMMC Power state to OFF. 
 323:Drivers/STM32F1xx_HAL_Driver/Src/stm32f1xx_ll_sdmmc.c ****   * @param  SDIOx: Pointer to SDMMC register base
 324:Drivers/STM32F1xx_HAL_Driver/Src/stm32f1xx_ll_sdmmc.c ****   * @retval HAL status
 325:Drivers/STM32F1xx_HAL_Driver/Src/stm32f1xx_ll_sdmmc.c ****   */
 326:Drivers/STM32F1xx_HAL_Driver/Src/stm32f1xx_ll_sdmmc.c **** HAL_StatusTypeDef SDIO_PowerState_OFF(SDIO_TypeDef *SDIOx)
 327:Drivers/STM32F1xx_HAL_Driver/Src/stm32f1xx_ll_sdmmc.c **** {
 328:Drivers/STM32F1xx_HAL_Driver/Src/stm32f1xx_ll_sdmmc.c ****   /* Set power state to OFF */
 329:Drivers/STM32F1xx_HAL_Driver/Src/stm32f1xx_ll_sdmmc.c ****   SDIOx->POWER = (uint32_t)0x00000000;
 330:Drivers/STM32F1xx_HAL_Driver/Src/stm32f1xx_ll_sdmmc.c ****   
 331:Drivers/STM32F1xx_HAL_Driver/Src/stm32f1xx_ll_sdmmc.c ****   return HAL_OK;
 332:Drivers/STM32F1xx_HAL_Driver/Src/stm32f1xx_ll_sdmmc.c **** }
 333:Drivers/STM32F1xx_HAL_Driver/Src/stm32f1xx_ll_sdmmc.c **** 
 334:Drivers/STM32F1xx_HAL_Driver/Src/stm32f1xx_ll_sdmmc.c **** /**
 335:Drivers/STM32F1xx_HAL_Driver/Src/stm32f1xx_ll_sdmmc.c ****   * @brief  Get SDMMC Power state. 
 336:Drivers/STM32F1xx_HAL_Driver/Src/stm32f1xx_ll_sdmmc.c ****   * @param  SDIOx: Pointer to SDMMC register base
 337:Drivers/STM32F1xx_HAL_Driver/Src/stm32f1xx_ll_sdmmc.c ****   * @retval Power status of the controller. The returned value can be one of the 
 338:Drivers/STM32F1xx_HAL_Driver/Src/stm32f1xx_ll_sdmmc.c ****   *         following values:
 339:Drivers/STM32F1xx_HAL_Driver/Src/stm32f1xx_ll_sdmmc.c ****   *            - 0x00: Power OFF
 340:Drivers/STM32F1xx_HAL_Driver/Src/stm32f1xx_ll_sdmmc.c ****   *            - 0x02: Power UP
 341:Drivers/STM32F1xx_HAL_Driver/Src/stm32f1xx_ll_sdmmc.c ****   *            - 0x03: Power ON 
 342:Drivers/STM32F1xx_HAL_Driver/Src/stm32f1xx_ll_sdmmc.c ****   */
 343:Drivers/STM32F1xx_HAL_Driver/Src/stm32f1xx_ll_sdmmc.c **** uint32_t SDIO_GetPowerState(SDIO_TypeDef *SDIOx)  
 344:Drivers/STM32F1xx_HAL_Driver/Src/stm32f1xx_ll_sdmmc.c **** {
 345:Drivers/STM32F1xx_HAL_Driver/Src/stm32f1xx_ll_sdmmc.c ****   return (SDIOx->POWER & SDIO_POWER_PWRCTRL);
 346:Drivers/STM32F1xx_HAL_Driver/Src/stm32f1xx_ll_sdmmc.c **** }
 347:Drivers/STM32F1xx_HAL_Driver/Src/stm32f1xx_ll_sdmmc.c **** 
 348:Drivers/STM32F1xx_HAL_Driver/Src/stm32f1xx_ll_sdmmc.c **** /**
 349:Drivers/STM32F1xx_HAL_Driver/Src/stm32f1xx_ll_sdmmc.c ****   * @brief  Configure the SDMMC command path according to the specified parameters in
 350:Drivers/STM32F1xx_HAL_Driver/Src/stm32f1xx_ll_sdmmc.c ****   *         SDIO_CmdInitTypeDef structure and send the command 
 351:Drivers/STM32F1xx_HAL_Driver/Src/stm32f1xx_ll_sdmmc.c ****   * @param  SDIOx: Pointer to SDMMC register base
 352:Drivers/STM32F1xx_HAL_Driver/Src/stm32f1xx_ll_sdmmc.c ****   * @param  Command: pointer to a SDIO_CmdInitTypeDef structure that contains 
 353:Drivers/STM32F1xx_HAL_Driver/Src/stm32f1xx_ll_sdmmc.c ****   *         the configuration information for the SDMMC command
 354:Drivers/STM32F1xx_HAL_Driver/Src/stm32f1xx_ll_sdmmc.c ****   * @retval HAL status
 355:Drivers/STM32F1xx_HAL_Driver/Src/stm32f1xx_ll_sdmmc.c ****   */
 356:Drivers/STM32F1xx_HAL_Driver/Src/stm32f1xx_ll_sdmmc.c **** HAL_StatusTypeDef SDIO_SendCommand(SDIO_TypeDef *SDIOx, SDIO_CmdInitTypeDef *Command)
 357:Drivers/STM32F1xx_HAL_Driver/Src/stm32f1xx_ll_sdmmc.c **** {
 358:Drivers/STM32F1xx_HAL_Driver/Src/stm32f1xx_ll_sdmmc.c ****   uint32_t tmpreg = 0;
 359:Drivers/STM32F1xx_HAL_Driver/Src/stm32f1xx_ll_sdmmc.c ****   
 360:Drivers/STM32F1xx_HAL_Driver/Src/stm32f1xx_ll_sdmmc.c ****   /* Check the parameters */
 361:Drivers/STM32F1xx_HAL_Driver/Src/stm32f1xx_ll_sdmmc.c ****   assert_param(IS_SDIO_CMD_INDEX(Command->CmdIndex));
 362:Drivers/STM32F1xx_HAL_Driver/Src/stm32f1xx_ll_sdmmc.c ****   assert_param(IS_SDIO_RESPONSE(Command->Response));
 363:Drivers/STM32F1xx_HAL_Driver/Src/stm32f1xx_ll_sdmmc.c ****   assert_param(IS_SDIO_WAIT(Command->WaitForInterrupt));
 364:Drivers/STM32F1xx_HAL_Driver/Src/stm32f1xx_ll_sdmmc.c ****   assert_param(IS_SDIO_CPSM(Command->CPSM));
 365:Drivers/STM32F1xx_HAL_Driver/Src/stm32f1xx_ll_sdmmc.c **** 
 366:Drivers/STM32F1xx_HAL_Driver/Src/stm32f1xx_ll_sdmmc.c ****   /* Set the SDMMC Argument value */
 367:Drivers/STM32F1xx_HAL_Driver/Src/stm32f1xx_ll_sdmmc.c ****   SDIOx->ARG = Command->Argument;
 368:Drivers/STM32F1xx_HAL_Driver/Src/stm32f1xx_ll_sdmmc.c **** 
 369:Drivers/STM32F1xx_HAL_Driver/Src/stm32f1xx_ll_sdmmc.c ****   /* Set SDMMC command parameters */
 370:Drivers/STM32F1xx_HAL_Driver/Src/stm32f1xx_ll_sdmmc.c ****   tmpreg |= (uint32_t)(Command->CmdIndex         |\
 371:Drivers/STM32F1xx_HAL_Driver/Src/stm32f1xx_ll_sdmmc.c ****                        Command->Response         |\
 372:Drivers/STM32F1xx_HAL_Driver/Src/stm32f1xx_ll_sdmmc.c ****                        Command->WaitForInterrupt |\
 373:Drivers/STM32F1xx_HAL_Driver/Src/stm32f1xx_ll_sdmmc.c ****                        Command->CPSM);
 374:Drivers/STM32F1xx_HAL_Driver/Src/stm32f1xx_ll_sdmmc.c ****   
 375:Drivers/STM32F1xx_HAL_Driver/Src/stm32f1xx_ll_sdmmc.c ****   /* Write to SDMMC CMD register */
 376:Drivers/STM32F1xx_HAL_Driver/Src/stm32f1xx_ll_sdmmc.c ****   MODIFY_REG(SDIOx->CMD, CMD_CLEAR_MASK, tmpreg); 
ARM GAS  /tmp/cc3JF8Cu.s 			page 8


 377:Drivers/STM32F1xx_HAL_Driver/Src/stm32f1xx_ll_sdmmc.c ****   
 378:Drivers/STM32F1xx_HAL_Driver/Src/stm32f1xx_ll_sdmmc.c ****   return HAL_OK;  
 379:Drivers/STM32F1xx_HAL_Driver/Src/stm32f1xx_ll_sdmmc.c **** }
 380:Drivers/STM32F1xx_HAL_Driver/Src/stm32f1xx_ll_sdmmc.c **** 
 381:Drivers/STM32F1xx_HAL_Driver/Src/stm32f1xx_ll_sdmmc.c **** /**
 382:Drivers/STM32F1xx_HAL_Driver/Src/stm32f1xx_ll_sdmmc.c ****   * @brief  Return the command index of last command for which response received
 383:Drivers/STM32F1xx_HAL_Driver/Src/stm32f1xx_ll_sdmmc.c ****   * @param  SDIOx: Pointer to SDMMC register base
 384:Drivers/STM32F1xx_HAL_Driver/Src/stm32f1xx_ll_sdmmc.c ****   * @retval Command index of the last command response received
 385:Drivers/STM32F1xx_HAL_Driver/Src/stm32f1xx_ll_sdmmc.c ****   */
 386:Drivers/STM32F1xx_HAL_Driver/Src/stm32f1xx_ll_sdmmc.c **** uint8_t SDIO_GetCommandResponse(SDIO_TypeDef *SDIOx)
 387:Drivers/STM32F1xx_HAL_Driver/Src/stm32f1xx_ll_sdmmc.c **** {
 388:Drivers/STM32F1xx_HAL_Driver/Src/stm32f1xx_ll_sdmmc.c ****   return (uint8_t)(SDIOx->RESPCMD);
 389:Drivers/STM32F1xx_HAL_Driver/Src/stm32f1xx_ll_sdmmc.c **** }
 390:Drivers/STM32F1xx_HAL_Driver/Src/stm32f1xx_ll_sdmmc.c **** 
 391:Drivers/STM32F1xx_HAL_Driver/Src/stm32f1xx_ll_sdmmc.c **** 
 392:Drivers/STM32F1xx_HAL_Driver/Src/stm32f1xx_ll_sdmmc.c **** /**
 393:Drivers/STM32F1xx_HAL_Driver/Src/stm32f1xx_ll_sdmmc.c ****   * @brief  Return the response received from the card for the last command
 394:Drivers/STM32F1xx_HAL_Driver/Src/stm32f1xx_ll_sdmmc.c ****   * @param  SDIOx: Pointer to SDMMC register base    
 395:Drivers/STM32F1xx_HAL_Driver/Src/stm32f1xx_ll_sdmmc.c ****   * @param  Response: Specifies the SDMMC response register. 
 396:Drivers/STM32F1xx_HAL_Driver/Src/stm32f1xx_ll_sdmmc.c ****   *          This parameter can be one of the following values:
 397:Drivers/STM32F1xx_HAL_Driver/Src/stm32f1xx_ll_sdmmc.c ****   *            @arg SDIO_RESP1: Response Register 1
 398:Drivers/STM32F1xx_HAL_Driver/Src/stm32f1xx_ll_sdmmc.c ****   *            @arg SDIO_RESP2: Response Register 2
 399:Drivers/STM32F1xx_HAL_Driver/Src/stm32f1xx_ll_sdmmc.c ****   *            @arg SDIO_RESP3: Response Register 3
 400:Drivers/STM32F1xx_HAL_Driver/Src/stm32f1xx_ll_sdmmc.c ****   *            @arg SDIO_RESP4: Response Register 4  
 401:Drivers/STM32F1xx_HAL_Driver/Src/stm32f1xx_ll_sdmmc.c ****   * @retval The Corresponding response register value
 402:Drivers/STM32F1xx_HAL_Driver/Src/stm32f1xx_ll_sdmmc.c ****   */
 403:Drivers/STM32F1xx_HAL_Driver/Src/stm32f1xx_ll_sdmmc.c **** uint32_t SDIO_GetResponse(SDIO_TypeDef *SDIOx, uint32_t Response)
 404:Drivers/STM32F1xx_HAL_Driver/Src/stm32f1xx_ll_sdmmc.c **** {
 405:Drivers/STM32F1xx_HAL_Driver/Src/stm32f1xx_ll_sdmmc.c ****   uint32_t tmp;
 406:Drivers/STM32F1xx_HAL_Driver/Src/stm32f1xx_ll_sdmmc.c **** 
 407:Drivers/STM32F1xx_HAL_Driver/Src/stm32f1xx_ll_sdmmc.c ****   /* Check the parameters */
 408:Drivers/STM32F1xx_HAL_Driver/Src/stm32f1xx_ll_sdmmc.c ****   assert_param(IS_SDIO_RESP(Response));
 409:Drivers/STM32F1xx_HAL_Driver/Src/stm32f1xx_ll_sdmmc.c ****   
 410:Drivers/STM32F1xx_HAL_Driver/Src/stm32f1xx_ll_sdmmc.c ****   /* Get the response */
 411:Drivers/STM32F1xx_HAL_Driver/Src/stm32f1xx_ll_sdmmc.c ****   tmp = (uint32_t)(&(SDIOx->RESP1)) + Response;
 412:Drivers/STM32F1xx_HAL_Driver/Src/stm32f1xx_ll_sdmmc.c ****   
 413:Drivers/STM32F1xx_HAL_Driver/Src/stm32f1xx_ll_sdmmc.c ****   return (*(__IO uint32_t *) tmp);
 414:Drivers/STM32F1xx_HAL_Driver/Src/stm32f1xx_ll_sdmmc.c **** }  
 415:Drivers/STM32F1xx_HAL_Driver/Src/stm32f1xx_ll_sdmmc.c **** 
 416:Drivers/STM32F1xx_HAL_Driver/Src/stm32f1xx_ll_sdmmc.c **** /**
 417:Drivers/STM32F1xx_HAL_Driver/Src/stm32f1xx_ll_sdmmc.c ****   * @brief  Configure the SDMMC data path according to the specified 
 418:Drivers/STM32F1xx_HAL_Driver/Src/stm32f1xx_ll_sdmmc.c ****   *         parameters in the SDIO_DataInitTypeDef.
 419:Drivers/STM32F1xx_HAL_Driver/Src/stm32f1xx_ll_sdmmc.c ****   * @param  SDIOx: Pointer to SDIO register base  
 420:Drivers/STM32F1xx_HAL_Driver/Src/stm32f1xx_ll_sdmmc.c ****   * @param  Data : pointer to a SDIO_DataInitTypeDef structure 
 421:Drivers/STM32F1xx_HAL_Driver/Src/stm32f1xx_ll_sdmmc.c ****   *         that contains the configuration information for the SDMMC data.
 422:Drivers/STM32F1xx_HAL_Driver/Src/stm32f1xx_ll_sdmmc.c ****   * @retval HAL status
 423:Drivers/STM32F1xx_HAL_Driver/Src/stm32f1xx_ll_sdmmc.c ****   */
 424:Drivers/STM32F1xx_HAL_Driver/Src/stm32f1xx_ll_sdmmc.c **** HAL_StatusTypeDef SDIO_ConfigData(SDIO_TypeDef *SDIOx, SDIO_DataInitTypeDef* Data)
 425:Drivers/STM32F1xx_HAL_Driver/Src/stm32f1xx_ll_sdmmc.c **** {
 426:Drivers/STM32F1xx_HAL_Driver/Src/stm32f1xx_ll_sdmmc.c ****   uint32_t tmpreg = 0;
 427:Drivers/STM32F1xx_HAL_Driver/Src/stm32f1xx_ll_sdmmc.c ****   
 428:Drivers/STM32F1xx_HAL_Driver/Src/stm32f1xx_ll_sdmmc.c ****   /* Check the parameters */
 429:Drivers/STM32F1xx_HAL_Driver/Src/stm32f1xx_ll_sdmmc.c ****   assert_param(IS_SDIO_DATA_LENGTH(Data->DataLength));
 430:Drivers/STM32F1xx_HAL_Driver/Src/stm32f1xx_ll_sdmmc.c ****   assert_param(IS_SDIO_BLOCK_SIZE(Data->DataBlockSize));
 431:Drivers/STM32F1xx_HAL_Driver/Src/stm32f1xx_ll_sdmmc.c ****   assert_param(IS_SDIO_TRANSFER_DIR(Data->TransferDir));
 432:Drivers/STM32F1xx_HAL_Driver/Src/stm32f1xx_ll_sdmmc.c ****   assert_param(IS_SDIO_TRANSFER_MODE(Data->TransferMode));
 433:Drivers/STM32F1xx_HAL_Driver/Src/stm32f1xx_ll_sdmmc.c ****   assert_param(IS_SDIO_DPSM(Data->DPSM));
ARM GAS  /tmp/cc3JF8Cu.s 			page 9


 434:Drivers/STM32F1xx_HAL_Driver/Src/stm32f1xx_ll_sdmmc.c **** 
 435:Drivers/STM32F1xx_HAL_Driver/Src/stm32f1xx_ll_sdmmc.c ****   /* Set the SDMMC Data TimeOut value */
 436:Drivers/STM32F1xx_HAL_Driver/Src/stm32f1xx_ll_sdmmc.c ****   SDIOx->DTIMER = Data->DataTimeOut;
 437:Drivers/STM32F1xx_HAL_Driver/Src/stm32f1xx_ll_sdmmc.c **** 
 438:Drivers/STM32F1xx_HAL_Driver/Src/stm32f1xx_ll_sdmmc.c ****   /* Set the SDMMC DataLength value */
 439:Drivers/STM32F1xx_HAL_Driver/Src/stm32f1xx_ll_sdmmc.c ****   SDIOx->DLEN = Data->DataLength;
 440:Drivers/STM32F1xx_HAL_Driver/Src/stm32f1xx_ll_sdmmc.c **** 
 441:Drivers/STM32F1xx_HAL_Driver/Src/stm32f1xx_ll_sdmmc.c ****   /* Set the SDMMC data configuration parameters */
 442:Drivers/STM32F1xx_HAL_Driver/Src/stm32f1xx_ll_sdmmc.c ****   tmpreg |= (uint32_t)(Data->DataBlockSize |\
 443:Drivers/STM32F1xx_HAL_Driver/Src/stm32f1xx_ll_sdmmc.c ****                        Data->TransferDir   |\
 444:Drivers/STM32F1xx_HAL_Driver/Src/stm32f1xx_ll_sdmmc.c ****                        Data->TransferMode  |\
 445:Drivers/STM32F1xx_HAL_Driver/Src/stm32f1xx_ll_sdmmc.c ****                        Data->DPSM);
 446:Drivers/STM32F1xx_HAL_Driver/Src/stm32f1xx_ll_sdmmc.c ****   
 447:Drivers/STM32F1xx_HAL_Driver/Src/stm32f1xx_ll_sdmmc.c ****   /* Write to SDMMC DCTRL */
 448:Drivers/STM32F1xx_HAL_Driver/Src/stm32f1xx_ll_sdmmc.c ****   MODIFY_REG(SDIOx->DCTRL, DCTRL_CLEAR_MASK, tmpreg);
 449:Drivers/STM32F1xx_HAL_Driver/Src/stm32f1xx_ll_sdmmc.c **** 
 450:Drivers/STM32F1xx_HAL_Driver/Src/stm32f1xx_ll_sdmmc.c ****   return HAL_OK;
 451:Drivers/STM32F1xx_HAL_Driver/Src/stm32f1xx_ll_sdmmc.c **** 
 452:Drivers/STM32F1xx_HAL_Driver/Src/stm32f1xx_ll_sdmmc.c **** }
 453:Drivers/STM32F1xx_HAL_Driver/Src/stm32f1xx_ll_sdmmc.c **** 
 454:Drivers/STM32F1xx_HAL_Driver/Src/stm32f1xx_ll_sdmmc.c **** /**
 455:Drivers/STM32F1xx_HAL_Driver/Src/stm32f1xx_ll_sdmmc.c ****   * @brief  Returns number of remaining data bytes to be transferred.
 456:Drivers/STM32F1xx_HAL_Driver/Src/stm32f1xx_ll_sdmmc.c ****   * @param  SDIOx: Pointer to SDIO register base
 457:Drivers/STM32F1xx_HAL_Driver/Src/stm32f1xx_ll_sdmmc.c ****   * @retval Number of remaining data bytes to be transferred
 458:Drivers/STM32F1xx_HAL_Driver/Src/stm32f1xx_ll_sdmmc.c ****   */
 459:Drivers/STM32F1xx_HAL_Driver/Src/stm32f1xx_ll_sdmmc.c **** uint32_t SDIO_GetDataCounter(SDIO_TypeDef *SDIOx)
 460:Drivers/STM32F1xx_HAL_Driver/Src/stm32f1xx_ll_sdmmc.c **** {
 461:Drivers/STM32F1xx_HAL_Driver/Src/stm32f1xx_ll_sdmmc.c ****   return (SDIOx->DCOUNT);
 462:Drivers/STM32F1xx_HAL_Driver/Src/stm32f1xx_ll_sdmmc.c **** }
 463:Drivers/STM32F1xx_HAL_Driver/Src/stm32f1xx_ll_sdmmc.c **** 
 464:Drivers/STM32F1xx_HAL_Driver/Src/stm32f1xx_ll_sdmmc.c **** /**
 465:Drivers/STM32F1xx_HAL_Driver/Src/stm32f1xx_ll_sdmmc.c ****   * @brief  Get the FIFO data
 466:Drivers/STM32F1xx_HAL_Driver/Src/stm32f1xx_ll_sdmmc.c ****   * @param  SDIOx: Pointer to SDIO register base 
 467:Drivers/STM32F1xx_HAL_Driver/Src/stm32f1xx_ll_sdmmc.c ****   * @retval Data received
 468:Drivers/STM32F1xx_HAL_Driver/Src/stm32f1xx_ll_sdmmc.c ****   */
 469:Drivers/STM32F1xx_HAL_Driver/Src/stm32f1xx_ll_sdmmc.c **** uint32_t SDIO_GetFIFOCount(SDIO_TypeDef *SDIOx)
 470:Drivers/STM32F1xx_HAL_Driver/Src/stm32f1xx_ll_sdmmc.c **** {
 471:Drivers/STM32F1xx_HAL_Driver/Src/stm32f1xx_ll_sdmmc.c ****   return (SDIOx->FIFO);
 472:Drivers/STM32F1xx_HAL_Driver/Src/stm32f1xx_ll_sdmmc.c **** }
 473:Drivers/STM32F1xx_HAL_Driver/Src/stm32f1xx_ll_sdmmc.c **** 
 474:Drivers/STM32F1xx_HAL_Driver/Src/stm32f1xx_ll_sdmmc.c **** /**
 475:Drivers/STM32F1xx_HAL_Driver/Src/stm32f1xx_ll_sdmmc.c ****   * @brief  Sets one of the two options of inserting read wait interval.
 476:Drivers/STM32F1xx_HAL_Driver/Src/stm32f1xx_ll_sdmmc.c ****   * @param  SDIOx: Pointer to SDIO register base   
 477:Drivers/STM32F1xx_HAL_Driver/Src/stm32f1xx_ll_sdmmc.c ****   * @param  SDIO_ReadWaitMode: SDMMC Read Wait operation mode.
 478:Drivers/STM32F1xx_HAL_Driver/Src/stm32f1xx_ll_sdmmc.c ****   *          This parameter can be:
 479:Drivers/STM32F1xx_HAL_Driver/Src/stm32f1xx_ll_sdmmc.c ****   *            @arg SDIO_READ_WAIT_MODE_CLK: Read Wait control by stopping SDMMCCLK
 480:Drivers/STM32F1xx_HAL_Driver/Src/stm32f1xx_ll_sdmmc.c ****   *            @arg SDIO_READ_WAIT_MODE_DATA2: Read Wait control using SDMMC_DATA2
 481:Drivers/STM32F1xx_HAL_Driver/Src/stm32f1xx_ll_sdmmc.c ****   * @retval None
 482:Drivers/STM32F1xx_HAL_Driver/Src/stm32f1xx_ll_sdmmc.c ****   */
 483:Drivers/STM32F1xx_HAL_Driver/Src/stm32f1xx_ll_sdmmc.c **** HAL_StatusTypeDef SDIO_SetSDMMCReadWaitMode(SDIO_TypeDef *SDIOx, uint32_t SDIO_ReadWaitMode)
 484:Drivers/STM32F1xx_HAL_Driver/Src/stm32f1xx_ll_sdmmc.c **** {
 485:Drivers/STM32F1xx_HAL_Driver/Src/stm32f1xx_ll_sdmmc.c ****   /* Check the parameters */
 486:Drivers/STM32F1xx_HAL_Driver/Src/stm32f1xx_ll_sdmmc.c ****   assert_param(IS_SDIO_READWAIT_MODE(SDIO_ReadWaitMode));
 487:Drivers/STM32F1xx_HAL_Driver/Src/stm32f1xx_ll_sdmmc.c **** 
 488:Drivers/STM32F1xx_HAL_Driver/Src/stm32f1xx_ll_sdmmc.c ****   /* Set SDMMC read wait mode */
 489:Drivers/STM32F1xx_HAL_Driver/Src/stm32f1xx_ll_sdmmc.c ****   MODIFY_REG(SDIOx->DCTRL, SDIO_DCTRL_RWMOD, SDIO_ReadWaitMode);
 490:Drivers/STM32F1xx_HAL_Driver/Src/stm32f1xx_ll_sdmmc.c ****   
ARM GAS  /tmp/cc3JF8Cu.s 			page 10


 491:Drivers/STM32F1xx_HAL_Driver/Src/stm32f1xx_ll_sdmmc.c ****   return HAL_OK;  
 492:Drivers/STM32F1xx_HAL_Driver/Src/stm32f1xx_ll_sdmmc.c **** }
 493:Drivers/STM32F1xx_HAL_Driver/Src/stm32f1xx_ll_sdmmc.c **** 
 494:Drivers/STM32F1xx_HAL_Driver/Src/stm32f1xx_ll_sdmmc.c **** /**
 495:Drivers/STM32F1xx_HAL_Driver/Src/stm32f1xx_ll_sdmmc.c ****   * @}
 496:Drivers/STM32F1xx_HAL_Driver/Src/stm32f1xx_ll_sdmmc.c ****   */
 497:Drivers/STM32F1xx_HAL_Driver/Src/stm32f1xx_ll_sdmmc.c **** 
 498:Drivers/STM32F1xx_HAL_Driver/Src/stm32f1xx_ll_sdmmc.c **** 
 499:Drivers/STM32F1xx_HAL_Driver/Src/stm32f1xx_ll_sdmmc.c **** /** @defgroup HAL_SDMMC_LL_Group4 Command management functions 
 500:Drivers/STM32F1xx_HAL_Driver/Src/stm32f1xx_ll_sdmmc.c ****  *  @brief   Data transfers functions 
 501:Drivers/STM32F1xx_HAL_Driver/Src/stm32f1xx_ll_sdmmc.c ****  *
 502:Drivers/STM32F1xx_HAL_Driver/Src/stm32f1xx_ll_sdmmc.c **** @verbatim   
 503:Drivers/STM32F1xx_HAL_Driver/Src/stm32f1xx_ll_sdmmc.c ****  ===============================================================================
 504:Drivers/STM32F1xx_HAL_Driver/Src/stm32f1xx_ll_sdmmc.c ****                    ##### Commands management functions #####
 505:Drivers/STM32F1xx_HAL_Driver/Src/stm32f1xx_ll_sdmmc.c ****  ===============================================================================  
 506:Drivers/STM32F1xx_HAL_Driver/Src/stm32f1xx_ll_sdmmc.c ****     [..]
 507:Drivers/STM32F1xx_HAL_Driver/Src/stm32f1xx_ll_sdmmc.c ****     This subsection provides a set of functions allowing to manage the needed commands.
 508:Drivers/STM32F1xx_HAL_Driver/Src/stm32f1xx_ll_sdmmc.c **** 
 509:Drivers/STM32F1xx_HAL_Driver/Src/stm32f1xx_ll_sdmmc.c **** @endverbatim
 510:Drivers/STM32F1xx_HAL_Driver/Src/stm32f1xx_ll_sdmmc.c ****   * @{
 511:Drivers/STM32F1xx_HAL_Driver/Src/stm32f1xx_ll_sdmmc.c ****   */
 512:Drivers/STM32F1xx_HAL_Driver/Src/stm32f1xx_ll_sdmmc.c **** 
 513:Drivers/STM32F1xx_HAL_Driver/Src/stm32f1xx_ll_sdmmc.c **** /**
 514:Drivers/STM32F1xx_HAL_Driver/Src/stm32f1xx_ll_sdmmc.c ****   * @brief  Send the Data Block Lenght command and check the response
 515:Drivers/STM32F1xx_HAL_Driver/Src/stm32f1xx_ll_sdmmc.c ****   * @param  SDIOx: Pointer to SDIO register base 
 516:Drivers/STM32F1xx_HAL_Driver/Src/stm32f1xx_ll_sdmmc.c ****   * @retval HAL status
 517:Drivers/STM32F1xx_HAL_Driver/Src/stm32f1xx_ll_sdmmc.c ****   */
 518:Drivers/STM32F1xx_HAL_Driver/Src/stm32f1xx_ll_sdmmc.c **** uint32_t SDMMC_CmdBlockLength(SDIO_TypeDef *SDIOx, uint32_t BlockSize)
 519:Drivers/STM32F1xx_HAL_Driver/Src/stm32f1xx_ll_sdmmc.c **** {
 520:Drivers/STM32F1xx_HAL_Driver/Src/stm32f1xx_ll_sdmmc.c ****   SDIO_CmdInitTypeDef  sdmmc_cmdinit;
 521:Drivers/STM32F1xx_HAL_Driver/Src/stm32f1xx_ll_sdmmc.c ****   uint32_t errorstate;
 522:Drivers/STM32F1xx_HAL_Driver/Src/stm32f1xx_ll_sdmmc.c ****   
 523:Drivers/STM32F1xx_HAL_Driver/Src/stm32f1xx_ll_sdmmc.c ****   /* Set Block Size for Card */ 
 524:Drivers/STM32F1xx_HAL_Driver/Src/stm32f1xx_ll_sdmmc.c ****   sdmmc_cmdinit.Argument         = (uint32_t)BlockSize;
 525:Drivers/STM32F1xx_HAL_Driver/Src/stm32f1xx_ll_sdmmc.c ****   sdmmc_cmdinit.CmdIndex         = SDMMC_CMD_SET_BLOCKLEN;
 526:Drivers/STM32F1xx_HAL_Driver/Src/stm32f1xx_ll_sdmmc.c ****   sdmmc_cmdinit.Response         = SDIO_RESPONSE_SHORT;
 527:Drivers/STM32F1xx_HAL_Driver/Src/stm32f1xx_ll_sdmmc.c ****   sdmmc_cmdinit.WaitForInterrupt = SDIO_WAIT_NO;
 528:Drivers/STM32F1xx_HAL_Driver/Src/stm32f1xx_ll_sdmmc.c ****   sdmmc_cmdinit.CPSM             = SDIO_CPSM_ENABLE;
 529:Drivers/STM32F1xx_HAL_Driver/Src/stm32f1xx_ll_sdmmc.c ****   (void)SDIO_SendCommand(SDIOx, &sdmmc_cmdinit);
 530:Drivers/STM32F1xx_HAL_Driver/Src/stm32f1xx_ll_sdmmc.c ****   
 531:Drivers/STM32F1xx_HAL_Driver/Src/stm32f1xx_ll_sdmmc.c ****   /* Check for error conditions */
 532:Drivers/STM32F1xx_HAL_Driver/Src/stm32f1xx_ll_sdmmc.c ****   errorstate = SDMMC_GetCmdResp1(SDIOx, SDMMC_CMD_SET_BLOCKLEN, SDIO_CMDTIMEOUT);
 533:Drivers/STM32F1xx_HAL_Driver/Src/stm32f1xx_ll_sdmmc.c **** 
 534:Drivers/STM32F1xx_HAL_Driver/Src/stm32f1xx_ll_sdmmc.c ****   return errorstate;
 535:Drivers/STM32F1xx_HAL_Driver/Src/stm32f1xx_ll_sdmmc.c **** }
 536:Drivers/STM32F1xx_HAL_Driver/Src/stm32f1xx_ll_sdmmc.c **** 
 537:Drivers/STM32F1xx_HAL_Driver/Src/stm32f1xx_ll_sdmmc.c **** /**
 538:Drivers/STM32F1xx_HAL_Driver/Src/stm32f1xx_ll_sdmmc.c ****   * @brief  Send the Read Single Block command and check the response
 539:Drivers/STM32F1xx_HAL_Driver/Src/stm32f1xx_ll_sdmmc.c ****   * @param  SDIOx: Pointer to SDIO register base 
 540:Drivers/STM32F1xx_HAL_Driver/Src/stm32f1xx_ll_sdmmc.c ****   * @retval HAL status
 541:Drivers/STM32F1xx_HAL_Driver/Src/stm32f1xx_ll_sdmmc.c ****   */
 542:Drivers/STM32F1xx_HAL_Driver/Src/stm32f1xx_ll_sdmmc.c **** uint32_t SDMMC_CmdReadSingleBlock(SDIO_TypeDef *SDIOx, uint32_t ReadAdd)
 543:Drivers/STM32F1xx_HAL_Driver/Src/stm32f1xx_ll_sdmmc.c **** {
 544:Drivers/STM32F1xx_HAL_Driver/Src/stm32f1xx_ll_sdmmc.c ****   SDIO_CmdInitTypeDef  sdmmc_cmdinit;
 545:Drivers/STM32F1xx_HAL_Driver/Src/stm32f1xx_ll_sdmmc.c ****   uint32_t errorstate;
 546:Drivers/STM32F1xx_HAL_Driver/Src/stm32f1xx_ll_sdmmc.c ****   
 547:Drivers/STM32F1xx_HAL_Driver/Src/stm32f1xx_ll_sdmmc.c ****   /* Set Block Size for Card */ 
ARM GAS  /tmp/cc3JF8Cu.s 			page 11


 548:Drivers/STM32F1xx_HAL_Driver/Src/stm32f1xx_ll_sdmmc.c ****   sdmmc_cmdinit.Argument         = (uint32_t)ReadAdd;
 549:Drivers/STM32F1xx_HAL_Driver/Src/stm32f1xx_ll_sdmmc.c ****   sdmmc_cmdinit.CmdIndex         = SDMMC_CMD_READ_SINGLE_BLOCK;
 550:Drivers/STM32F1xx_HAL_Driver/Src/stm32f1xx_ll_sdmmc.c ****   sdmmc_cmdinit.Response         = SDIO_RESPONSE_SHORT;
 551:Drivers/STM32F1xx_HAL_Driver/Src/stm32f1xx_ll_sdmmc.c ****   sdmmc_cmdinit.WaitForInterrupt = SDIO_WAIT_NO;
 552:Drivers/STM32F1xx_HAL_Driver/Src/stm32f1xx_ll_sdmmc.c ****   sdmmc_cmdinit.CPSM             = SDIO_CPSM_ENABLE;
 553:Drivers/STM32F1xx_HAL_Driver/Src/stm32f1xx_ll_sdmmc.c ****   (void)SDIO_SendCommand(SDIOx, &sdmmc_cmdinit);
 554:Drivers/STM32F1xx_HAL_Driver/Src/stm32f1xx_ll_sdmmc.c ****   
 555:Drivers/STM32F1xx_HAL_Driver/Src/stm32f1xx_ll_sdmmc.c ****   /* Check for error conditions */
 556:Drivers/STM32F1xx_HAL_Driver/Src/stm32f1xx_ll_sdmmc.c ****   errorstate = SDMMC_GetCmdResp1(SDIOx, SDMMC_CMD_READ_SINGLE_BLOCK, SDIO_CMDTIMEOUT);
 557:Drivers/STM32F1xx_HAL_Driver/Src/stm32f1xx_ll_sdmmc.c **** 
 558:Drivers/STM32F1xx_HAL_Driver/Src/stm32f1xx_ll_sdmmc.c ****   return errorstate;
 559:Drivers/STM32F1xx_HAL_Driver/Src/stm32f1xx_ll_sdmmc.c **** }
 560:Drivers/STM32F1xx_HAL_Driver/Src/stm32f1xx_ll_sdmmc.c **** 
 561:Drivers/STM32F1xx_HAL_Driver/Src/stm32f1xx_ll_sdmmc.c **** /**
 562:Drivers/STM32F1xx_HAL_Driver/Src/stm32f1xx_ll_sdmmc.c ****   * @brief  Send the Read Multi Block command and check the response
 563:Drivers/STM32F1xx_HAL_Driver/Src/stm32f1xx_ll_sdmmc.c ****   * @param  SDIOx: Pointer to SDIO register base 
 564:Drivers/STM32F1xx_HAL_Driver/Src/stm32f1xx_ll_sdmmc.c ****   * @retval HAL status
 565:Drivers/STM32F1xx_HAL_Driver/Src/stm32f1xx_ll_sdmmc.c ****   */
 566:Drivers/STM32F1xx_HAL_Driver/Src/stm32f1xx_ll_sdmmc.c **** uint32_t SDMMC_CmdReadMultiBlock(SDIO_TypeDef *SDIOx, uint32_t ReadAdd)
 567:Drivers/STM32F1xx_HAL_Driver/Src/stm32f1xx_ll_sdmmc.c **** {
 568:Drivers/STM32F1xx_HAL_Driver/Src/stm32f1xx_ll_sdmmc.c ****   SDIO_CmdInitTypeDef  sdmmc_cmdinit;
 569:Drivers/STM32F1xx_HAL_Driver/Src/stm32f1xx_ll_sdmmc.c ****   uint32_t errorstate;
 570:Drivers/STM32F1xx_HAL_Driver/Src/stm32f1xx_ll_sdmmc.c ****   
 571:Drivers/STM32F1xx_HAL_Driver/Src/stm32f1xx_ll_sdmmc.c ****   /* Set Block Size for Card */ 
 572:Drivers/STM32F1xx_HAL_Driver/Src/stm32f1xx_ll_sdmmc.c ****   sdmmc_cmdinit.Argument         = (uint32_t)ReadAdd;
 573:Drivers/STM32F1xx_HAL_Driver/Src/stm32f1xx_ll_sdmmc.c ****   sdmmc_cmdinit.CmdIndex         = SDMMC_CMD_READ_MULT_BLOCK;
 574:Drivers/STM32F1xx_HAL_Driver/Src/stm32f1xx_ll_sdmmc.c ****   sdmmc_cmdinit.Response         = SDIO_RESPONSE_SHORT;
 575:Drivers/STM32F1xx_HAL_Driver/Src/stm32f1xx_ll_sdmmc.c ****   sdmmc_cmdinit.WaitForInterrupt = SDIO_WAIT_NO;
 576:Drivers/STM32F1xx_HAL_Driver/Src/stm32f1xx_ll_sdmmc.c ****   sdmmc_cmdinit.CPSM             = SDIO_CPSM_ENABLE;
 577:Drivers/STM32F1xx_HAL_Driver/Src/stm32f1xx_ll_sdmmc.c ****   (void)SDIO_SendCommand(SDIOx, &sdmmc_cmdinit);
 578:Drivers/STM32F1xx_HAL_Driver/Src/stm32f1xx_ll_sdmmc.c ****   
 579:Drivers/STM32F1xx_HAL_Driver/Src/stm32f1xx_ll_sdmmc.c ****   /* Check for error conditions */
 580:Drivers/STM32F1xx_HAL_Driver/Src/stm32f1xx_ll_sdmmc.c ****   errorstate = SDMMC_GetCmdResp1(SDIOx, SDMMC_CMD_READ_MULT_BLOCK, SDIO_CMDTIMEOUT);
 581:Drivers/STM32F1xx_HAL_Driver/Src/stm32f1xx_ll_sdmmc.c **** 
 582:Drivers/STM32F1xx_HAL_Driver/Src/stm32f1xx_ll_sdmmc.c ****   return errorstate;
 583:Drivers/STM32F1xx_HAL_Driver/Src/stm32f1xx_ll_sdmmc.c **** }
 584:Drivers/STM32F1xx_HAL_Driver/Src/stm32f1xx_ll_sdmmc.c **** 
 585:Drivers/STM32F1xx_HAL_Driver/Src/stm32f1xx_ll_sdmmc.c **** /**
 586:Drivers/STM32F1xx_HAL_Driver/Src/stm32f1xx_ll_sdmmc.c ****   * @brief  Send the Write Single Block command and check the response
 587:Drivers/STM32F1xx_HAL_Driver/Src/stm32f1xx_ll_sdmmc.c ****   * @param  SDIOx: Pointer to SDIO register base 
 588:Drivers/STM32F1xx_HAL_Driver/Src/stm32f1xx_ll_sdmmc.c ****   * @retval HAL status
 589:Drivers/STM32F1xx_HAL_Driver/Src/stm32f1xx_ll_sdmmc.c ****   */
 590:Drivers/STM32F1xx_HAL_Driver/Src/stm32f1xx_ll_sdmmc.c **** uint32_t SDMMC_CmdWriteSingleBlock(SDIO_TypeDef *SDIOx, uint32_t WriteAdd)
 591:Drivers/STM32F1xx_HAL_Driver/Src/stm32f1xx_ll_sdmmc.c **** {
 592:Drivers/STM32F1xx_HAL_Driver/Src/stm32f1xx_ll_sdmmc.c ****   SDIO_CmdInitTypeDef  sdmmc_cmdinit;
 593:Drivers/STM32F1xx_HAL_Driver/Src/stm32f1xx_ll_sdmmc.c ****   uint32_t errorstate;
 594:Drivers/STM32F1xx_HAL_Driver/Src/stm32f1xx_ll_sdmmc.c ****   
 595:Drivers/STM32F1xx_HAL_Driver/Src/stm32f1xx_ll_sdmmc.c ****   /* Set Block Size for Card */ 
 596:Drivers/STM32F1xx_HAL_Driver/Src/stm32f1xx_ll_sdmmc.c ****   sdmmc_cmdinit.Argument         = (uint32_t)WriteAdd;
 597:Drivers/STM32F1xx_HAL_Driver/Src/stm32f1xx_ll_sdmmc.c ****   sdmmc_cmdinit.CmdIndex         = SDMMC_CMD_WRITE_SINGLE_BLOCK;
 598:Drivers/STM32F1xx_HAL_Driver/Src/stm32f1xx_ll_sdmmc.c ****   sdmmc_cmdinit.Response         = SDIO_RESPONSE_SHORT;
 599:Drivers/STM32F1xx_HAL_Driver/Src/stm32f1xx_ll_sdmmc.c ****   sdmmc_cmdinit.WaitForInterrupt = SDIO_WAIT_NO;
 600:Drivers/STM32F1xx_HAL_Driver/Src/stm32f1xx_ll_sdmmc.c ****   sdmmc_cmdinit.CPSM             = SDIO_CPSM_ENABLE;
 601:Drivers/STM32F1xx_HAL_Driver/Src/stm32f1xx_ll_sdmmc.c ****   (void)SDIO_SendCommand(SDIOx, &sdmmc_cmdinit);
 602:Drivers/STM32F1xx_HAL_Driver/Src/stm32f1xx_ll_sdmmc.c ****   
 603:Drivers/STM32F1xx_HAL_Driver/Src/stm32f1xx_ll_sdmmc.c ****   /* Check for error conditions */
 604:Drivers/STM32F1xx_HAL_Driver/Src/stm32f1xx_ll_sdmmc.c ****   errorstate = SDMMC_GetCmdResp1(SDIOx, SDMMC_CMD_WRITE_SINGLE_BLOCK, SDIO_CMDTIMEOUT);
ARM GAS  /tmp/cc3JF8Cu.s 			page 12


 605:Drivers/STM32F1xx_HAL_Driver/Src/stm32f1xx_ll_sdmmc.c **** 
 606:Drivers/STM32F1xx_HAL_Driver/Src/stm32f1xx_ll_sdmmc.c ****   return errorstate;
 607:Drivers/STM32F1xx_HAL_Driver/Src/stm32f1xx_ll_sdmmc.c **** }
 608:Drivers/STM32F1xx_HAL_Driver/Src/stm32f1xx_ll_sdmmc.c **** 
 609:Drivers/STM32F1xx_HAL_Driver/Src/stm32f1xx_ll_sdmmc.c **** /**
 610:Drivers/STM32F1xx_HAL_Driver/Src/stm32f1xx_ll_sdmmc.c ****   * @brief  Send the Write Multi Block command and check the response
 611:Drivers/STM32F1xx_HAL_Driver/Src/stm32f1xx_ll_sdmmc.c ****   * @param  SDIOx: Pointer to SDIO register base 
 612:Drivers/STM32F1xx_HAL_Driver/Src/stm32f1xx_ll_sdmmc.c ****   * @retval HAL status
 613:Drivers/STM32F1xx_HAL_Driver/Src/stm32f1xx_ll_sdmmc.c ****   */
 614:Drivers/STM32F1xx_HAL_Driver/Src/stm32f1xx_ll_sdmmc.c **** uint32_t SDMMC_CmdWriteMultiBlock(SDIO_TypeDef *SDIOx, uint32_t WriteAdd)
 615:Drivers/STM32F1xx_HAL_Driver/Src/stm32f1xx_ll_sdmmc.c **** {
 616:Drivers/STM32F1xx_HAL_Driver/Src/stm32f1xx_ll_sdmmc.c ****   SDIO_CmdInitTypeDef  sdmmc_cmdinit;
 617:Drivers/STM32F1xx_HAL_Driver/Src/stm32f1xx_ll_sdmmc.c ****   uint32_t errorstate;
 618:Drivers/STM32F1xx_HAL_Driver/Src/stm32f1xx_ll_sdmmc.c ****   
 619:Drivers/STM32F1xx_HAL_Driver/Src/stm32f1xx_ll_sdmmc.c ****   /* Set Block Size for Card */ 
 620:Drivers/STM32F1xx_HAL_Driver/Src/stm32f1xx_ll_sdmmc.c ****   sdmmc_cmdinit.Argument         = (uint32_t)WriteAdd;
 621:Drivers/STM32F1xx_HAL_Driver/Src/stm32f1xx_ll_sdmmc.c ****   sdmmc_cmdinit.CmdIndex         = SDMMC_CMD_WRITE_MULT_BLOCK;
 622:Drivers/STM32F1xx_HAL_Driver/Src/stm32f1xx_ll_sdmmc.c ****   sdmmc_cmdinit.Response         = SDIO_RESPONSE_SHORT;
 623:Drivers/STM32F1xx_HAL_Driver/Src/stm32f1xx_ll_sdmmc.c ****   sdmmc_cmdinit.WaitForInterrupt = SDIO_WAIT_NO;
 624:Drivers/STM32F1xx_HAL_Driver/Src/stm32f1xx_ll_sdmmc.c ****   sdmmc_cmdinit.CPSM             = SDIO_CPSM_ENABLE;
 625:Drivers/STM32F1xx_HAL_Driver/Src/stm32f1xx_ll_sdmmc.c ****   (void)SDIO_SendCommand(SDIOx, &sdmmc_cmdinit);
 626:Drivers/STM32F1xx_HAL_Driver/Src/stm32f1xx_ll_sdmmc.c ****   
 627:Drivers/STM32F1xx_HAL_Driver/Src/stm32f1xx_ll_sdmmc.c ****   /* Check for error conditions */
 628:Drivers/STM32F1xx_HAL_Driver/Src/stm32f1xx_ll_sdmmc.c ****   errorstate = SDMMC_GetCmdResp1(SDIOx, SDMMC_CMD_WRITE_MULT_BLOCK, SDIO_CMDTIMEOUT);
 629:Drivers/STM32F1xx_HAL_Driver/Src/stm32f1xx_ll_sdmmc.c **** 
 630:Drivers/STM32F1xx_HAL_Driver/Src/stm32f1xx_ll_sdmmc.c ****   return errorstate;
 631:Drivers/STM32F1xx_HAL_Driver/Src/stm32f1xx_ll_sdmmc.c **** }
 632:Drivers/STM32F1xx_HAL_Driver/Src/stm32f1xx_ll_sdmmc.c **** 
 633:Drivers/STM32F1xx_HAL_Driver/Src/stm32f1xx_ll_sdmmc.c **** /**
 634:Drivers/STM32F1xx_HAL_Driver/Src/stm32f1xx_ll_sdmmc.c ****   * @brief  Send the Start Address Erase command for SD and check the response
 635:Drivers/STM32F1xx_HAL_Driver/Src/stm32f1xx_ll_sdmmc.c ****   * @param  SDIOx: Pointer to SDIO register base 
 636:Drivers/STM32F1xx_HAL_Driver/Src/stm32f1xx_ll_sdmmc.c ****   * @retval HAL status
 637:Drivers/STM32F1xx_HAL_Driver/Src/stm32f1xx_ll_sdmmc.c ****   */
 638:Drivers/STM32F1xx_HAL_Driver/Src/stm32f1xx_ll_sdmmc.c **** uint32_t SDMMC_CmdSDEraseStartAdd(SDIO_TypeDef *SDIOx, uint32_t StartAdd)
 639:Drivers/STM32F1xx_HAL_Driver/Src/stm32f1xx_ll_sdmmc.c **** {
 640:Drivers/STM32F1xx_HAL_Driver/Src/stm32f1xx_ll_sdmmc.c ****   SDIO_CmdInitTypeDef  sdmmc_cmdinit;
 641:Drivers/STM32F1xx_HAL_Driver/Src/stm32f1xx_ll_sdmmc.c ****   uint32_t errorstate;
 642:Drivers/STM32F1xx_HAL_Driver/Src/stm32f1xx_ll_sdmmc.c ****   
 643:Drivers/STM32F1xx_HAL_Driver/Src/stm32f1xx_ll_sdmmc.c ****   /* Set Block Size for Card */ 
 644:Drivers/STM32F1xx_HAL_Driver/Src/stm32f1xx_ll_sdmmc.c ****   sdmmc_cmdinit.Argument         = (uint32_t)StartAdd;
 645:Drivers/STM32F1xx_HAL_Driver/Src/stm32f1xx_ll_sdmmc.c ****   sdmmc_cmdinit.CmdIndex         = SDMMC_CMD_SD_ERASE_GRP_START;
 646:Drivers/STM32F1xx_HAL_Driver/Src/stm32f1xx_ll_sdmmc.c ****   sdmmc_cmdinit.Response         = SDIO_RESPONSE_SHORT;
 647:Drivers/STM32F1xx_HAL_Driver/Src/stm32f1xx_ll_sdmmc.c ****   sdmmc_cmdinit.WaitForInterrupt = SDIO_WAIT_NO;
 648:Drivers/STM32F1xx_HAL_Driver/Src/stm32f1xx_ll_sdmmc.c ****   sdmmc_cmdinit.CPSM             = SDIO_CPSM_ENABLE;
 649:Drivers/STM32F1xx_HAL_Driver/Src/stm32f1xx_ll_sdmmc.c ****   (void)SDIO_SendCommand(SDIOx, &sdmmc_cmdinit);
 650:Drivers/STM32F1xx_HAL_Driver/Src/stm32f1xx_ll_sdmmc.c ****   
 651:Drivers/STM32F1xx_HAL_Driver/Src/stm32f1xx_ll_sdmmc.c ****   /* Check for error conditions */
 652:Drivers/STM32F1xx_HAL_Driver/Src/stm32f1xx_ll_sdmmc.c ****   errorstate = SDMMC_GetCmdResp1(SDIOx, SDMMC_CMD_SD_ERASE_GRP_START, SDIO_CMDTIMEOUT);
 653:Drivers/STM32F1xx_HAL_Driver/Src/stm32f1xx_ll_sdmmc.c **** 
 654:Drivers/STM32F1xx_HAL_Driver/Src/stm32f1xx_ll_sdmmc.c ****   return errorstate;
 655:Drivers/STM32F1xx_HAL_Driver/Src/stm32f1xx_ll_sdmmc.c **** }
 656:Drivers/STM32F1xx_HAL_Driver/Src/stm32f1xx_ll_sdmmc.c **** 
 657:Drivers/STM32F1xx_HAL_Driver/Src/stm32f1xx_ll_sdmmc.c **** /**
 658:Drivers/STM32F1xx_HAL_Driver/Src/stm32f1xx_ll_sdmmc.c ****   * @brief  Send the End Address Erase command for SD and check the response
 659:Drivers/STM32F1xx_HAL_Driver/Src/stm32f1xx_ll_sdmmc.c ****   * @param  SDIOx: Pointer to SDIO register base 
 660:Drivers/STM32F1xx_HAL_Driver/Src/stm32f1xx_ll_sdmmc.c ****   * @retval HAL status
 661:Drivers/STM32F1xx_HAL_Driver/Src/stm32f1xx_ll_sdmmc.c ****   */
ARM GAS  /tmp/cc3JF8Cu.s 			page 13


 662:Drivers/STM32F1xx_HAL_Driver/Src/stm32f1xx_ll_sdmmc.c **** uint32_t SDMMC_CmdSDEraseEndAdd(SDIO_TypeDef *SDIOx, uint32_t EndAdd)
 663:Drivers/STM32F1xx_HAL_Driver/Src/stm32f1xx_ll_sdmmc.c **** {
 664:Drivers/STM32F1xx_HAL_Driver/Src/stm32f1xx_ll_sdmmc.c ****   SDIO_CmdInitTypeDef  sdmmc_cmdinit;
 665:Drivers/STM32F1xx_HAL_Driver/Src/stm32f1xx_ll_sdmmc.c ****   uint32_t errorstate;
 666:Drivers/STM32F1xx_HAL_Driver/Src/stm32f1xx_ll_sdmmc.c ****   
 667:Drivers/STM32F1xx_HAL_Driver/Src/stm32f1xx_ll_sdmmc.c ****   /* Set Block Size for Card */ 
 668:Drivers/STM32F1xx_HAL_Driver/Src/stm32f1xx_ll_sdmmc.c ****   sdmmc_cmdinit.Argument         = (uint32_t)EndAdd;
 669:Drivers/STM32F1xx_HAL_Driver/Src/stm32f1xx_ll_sdmmc.c ****   sdmmc_cmdinit.CmdIndex         = SDMMC_CMD_SD_ERASE_GRP_END;
 670:Drivers/STM32F1xx_HAL_Driver/Src/stm32f1xx_ll_sdmmc.c ****   sdmmc_cmdinit.Response         = SDIO_RESPONSE_SHORT;
 671:Drivers/STM32F1xx_HAL_Driver/Src/stm32f1xx_ll_sdmmc.c ****   sdmmc_cmdinit.WaitForInterrupt = SDIO_WAIT_NO;
 672:Drivers/STM32F1xx_HAL_Driver/Src/stm32f1xx_ll_sdmmc.c ****   sdmmc_cmdinit.CPSM             = SDIO_CPSM_ENABLE;
 673:Drivers/STM32F1xx_HAL_Driver/Src/stm32f1xx_ll_sdmmc.c ****   (void)SDIO_SendCommand(SDIOx, &sdmmc_cmdinit);
 674:Drivers/STM32F1xx_HAL_Driver/Src/stm32f1xx_ll_sdmmc.c ****   
 675:Drivers/STM32F1xx_HAL_Driver/Src/stm32f1xx_ll_sdmmc.c ****   /* Check for error conditions */
 676:Drivers/STM32F1xx_HAL_Driver/Src/stm32f1xx_ll_sdmmc.c ****   errorstate = SDMMC_GetCmdResp1(SDIOx, SDMMC_CMD_SD_ERASE_GRP_END, SDIO_CMDTIMEOUT);
 677:Drivers/STM32F1xx_HAL_Driver/Src/stm32f1xx_ll_sdmmc.c **** 
 678:Drivers/STM32F1xx_HAL_Driver/Src/stm32f1xx_ll_sdmmc.c ****   return errorstate;
 679:Drivers/STM32F1xx_HAL_Driver/Src/stm32f1xx_ll_sdmmc.c **** }
 680:Drivers/STM32F1xx_HAL_Driver/Src/stm32f1xx_ll_sdmmc.c **** 
 681:Drivers/STM32F1xx_HAL_Driver/Src/stm32f1xx_ll_sdmmc.c **** /**
 682:Drivers/STM32F1xx_HAL_Driver/Src/stm32f1xx_ll_sdmmc.c ****   * @brief  Send the Start Address Erase command and check the response
 683:Drivers/STM32F1xx_HAL_Driver/Src/stm32f1xx_ll_sdmmc.c ****   * @param  SDIOx: Pointer to SDIO register base 
 684:Drivers/STM32F1xx_HAL_Driver/Src/stm32f1xx_ll_sdmmc.c ****   * @retval HAL status
 685:Drivers/STM32F1xx_HAL_Driver/Src/stm32f1xx_ll_sdmmc.c ****   */
 686:Drivers/STM32F1xx_HAL_Driver/Src/stm32f1xx_ll_sdmmc.c **** uint32_t SDMMC_CmdEraseStartAdd(SDIO_TypeDef *SDIOx, uint32_t StartAdd)
 687:Drivers/STM32F1xx_HAL_Driver/Src/stm32f1xx_ll_sdmmc.c **** {
 688:Drivers/STM32F1xx_HAL_Driver/Src/stm32f1xx_ll_sdmmc.c ****   SDIO_CmdInitTypeDef  sdmmc_cmdinit;
 689:Drivers/STM32F1xx_HAL_Driver/Src/stm32f1xx_ll_sdmmc.c ****   uint32_t errorstate;
 690:Drivers/STM32F1xx_HAL_Driver/Src/stm32f1xx_ll_sdmmc.c ****   
 691:Drivers/STM32F1xx_HAL_Driver/Src/stm32f1xx_ll_sdmmc.c ****   /* Set Block Size for Card */ 
 692:Drivers/STM32F1xx_HAL_Driver/Src/stm32f1xx_ll_sdmmc.c ****   sdmmc_cmdinit.Argument         = (uint32_t)StartAdd;
 693:Drivers/STM32F1xx_HAL_Driver/Src/stm32f1xx_ll_sdmmc.c ****   sdmmc_cmdinit.CmdIndex         = SDMMC_CMD_ERASE_GRP_START;
 694:Drivers/STM32F1xx_HAL_Driver/Src/stm32f1xx_ll_sdmmc.c ****   sdmmc_cmdinit.Response         = SDIO_RESPONSE_SHORT;
 695:Drivers/STM32F1xx_HAL_Driver/Src/stm32f1xx_ll_sdmmc.c ****   sdmmc_cmdinit.WaitForInterrupt = SDIO_WAIT_NO;
 696:Drivers/STM32F1xx_HAL_Driver/Src/stm32f1xx_ll_sdmmc.c ****   sdmmc_cmdinit.CPSM             = SDIO_CPSM_ENABLE;
 697:Drivers/STM32F1xx_HAL_Driver/Src/stm32f1xx_ll_sdmmc.c ****   (void)SDIO_SendCommand(SDIOx, &sdmmc_cmdinit);
 698:Drivers/STM32F1xx_HAL_Driver/Src/stm32f1xx_ll_sdmmc.c ****   
 699:Drivers/STM32F1xx_HAL_Driver/Src/stm32f1xx_ll_sdmmc.c ****   /* Check for error conditions */
 700:Drivers/STM32F1xx_HAL_Driver/Src/stm32f1xx_ll_sdmmc.c ****   errorstate = SDMMC_GetCmdResp1(SDIOx, SDMMC_CMD_ERASE_GRP_START, SDIO_CMDTIMEOUT);
 701:Drivers/STM32F1xx_HAL_Driver/Src/stm32f1xx_ll_sdmmc.c **** 
 702:Drivers/STM32F1xx_HAL_Driver/Src/stm32f1xx_ll_sdmmc.c ****   return errorstate;
 703:Drivers/STM32F1xx_HAL_Driver/Src/stm32f1xx_ll_sdmmc.c **** }
 704:Drivers/STM32F1xx_HAL_Driver/Src/stm32f1xx_ll_sdmmc.c **** 
 705:Drivers/STM32F1xx_HAL_Driver/Src/stm32f1xx_ll_sdmmc.c **** /**
 706:Drivers/STM32F1xx_HAL_Driver/Src/stm32f1xx_ll_sdmmc.c ****   * @brief  Send the End Address Erase command and check the response
 707:Drivers/STM32F1xx_HAL_Driver/Src/stm32f1xx_ll_sdmmc.c ****   * @param  SDIOx: Pointer to SDIO register base 
 708:Drivers/STM32F1xx_HAL_Driver/Src/stm32f1xx_ll_sdmmc.c ****   * @retval HAL status
 709:Drivers/STM32F1xx_HAL_Driver/Src/stm32f1xx_ll_sdmmc.c ****   */
 710:Drivers/STM32F1xx_HAL_Driver/Src/stm32f1xx_ll_sdmmc.c **** uint32_t SDMMC_CmdEraseEndAdd(SDIO_TypeDef *SDIOx, uint32_t EndAdd)
 711:Drivers/STM32F1xx_HAL_Driver/Src/stm32f1xx_ll_sdmmc.c **** {
 712:Drivers/STM32F1xx_HAL_Driver/Src/stm32f1xx_ll_sdmmc.c ****   SDIO_CmdInitTypeDef  sdmmc_cmdinit;
 713:Drivers/STM32F1xx_HAL_Driver/Src/stm32f1xx_ll_sdmmc.c ****   uint32_t errorstate;
 714:Drivers/STM32F1xx_HAL_Driver/Src/stm32f1xx_ll_sdmmc.c ****   
 715:Drivers/STM32F1xx_HAL_Driver/Src/stm32f1xx_ll_sdmmc.c ****   /* Set Block Size for Card */ 
 716:Drivers/STM32F1xx_HAL_Driver/Src/stm32f1xx_ll_sdmmc.c ****   sdmmc_cmdinit.Argument         = (uint32_t)EndAdd;
 717:Drivers/STM32F1xx_HAL_Driver/Src/stm32f1xx_ll_sdmmc.c ****   sdmmc_cmdinit.CmdIndex         = SDMMC_CMD_ERASE_GRP_END;
 718:Drivers/STM32F1xx_HAL_Driver/Src/stm32f1xx_ll_sdmmc.c ****   sdmmc_cmdinit.Response         = SDIO_RESPONSE_SHORT;
ARM GAS  /tmp/cc3JF8Cu.s 			page 14


 719:Drivers/STM32F1xx_HAL_Driver/Src/stm32f1xx_ll_sdmmc.c ****   sdmmc_cmdinit.WaitForInterrupt = SDIO_WAIT_NO;
 720:Drivers/STM32F1xx_HAL_Driver/Src/stm32f1xx_ll_sdmmc.c ****   sdmmc_cmdinit.CPSM             = SDIO_CPSM_ENABLE;
 721:Drivers/STM32F1xx_HAL_Driver/Src/stm32f1xx_ll_sdmmc.c ****   (void)SDIO_SendCommand(SDIOx, &sdmmc_cmdinit);
 722:Drivers/STM32F1xx_HAL_Driver/Src/stm32f1xx_ll_sdmmc.c ****   
 723:Drivers/STM32F1xx_HAL_Driver/Src/stm32f1xx_ll_sdmmc.c ****   /* Check for error conditions */
 724:Drivers/STM32F1xx_HAL_Driver/Src/stm32f1xx_ll_sdmmc.c ****   errorstate = SDMMC_GetCmdResp1(SDIOx, SDMMC_CMD_ERASE_GRP_END, SDIO_CMDTIMEOUT);
 725:Drivers/STM32F1xx_HAL_Driver/Src/stm32f1xx_ll_sdmmc.c **** 
 726:Drivers/STM32F1xx_HAL_Driver/Src/stm32f1xx_ll_sdmmc.c ****   return errorstate;
 727:Drivers/STM32F1xx_HAL_Driver/Src/stm32f1xx_ll_sdmmc.c **** }
 728:Drivers/STM32F1xx_HAL_Driver/Src/stm32f1xx_ll_sdmmc.c **** 
 729:Drivers/STM32F1xx_HAL_Driver/Src/stm32f1xx_ll_sdmmc.c **** /**
 730:Drivers/STM32F1xx_HAL_Driver/Src/stm32f1xx_ll_sdmmc.c ****   * @brief  Send the Erase command and check the response
 731:Drivers/STM32F1xx_HAL_Driver/Src/stm32f1xx_ll_sdmmc.c ****   * @param  SDIOx: Pointer to SDIO register base 
 732:Drivers/STM32F1xx_HAL_Driver/Src/stm32f1xx_ll_sdmmc.c ****   * @retval HAL status
 733:Drivers/STM32F1xx_HAL_Driver/Src/stm32f1xx_ll_sdmmc.c ****   */
 734:Drivers/STM32F1xx_HAL_Driver/Src/stm32f1xx_ll_sdmmc.c **** uint32_t SDMMC_CmdErase(SDIO_TypeDef *SDIOx)
 735:Drivers/STM32F1xx_HAL_Driver/Src/stm32f1xx_ll_sdmmc.c **** {
 736:Drivers/STM32F1xx_HAL_Driver/Src/stm32f1xx_ll_sdmmc.c ****   SDIO_CmdInitTypeDef  sdmmc_cmdinit;
 737:Drivers/STM32F1xx_HAL_Driver/Src/stm32f1xx_ll_sdmmc.c ****   uint32_t errorstate;
 738:Drivers/STM32F1xx_HAL_Driver/Src/stm32f1xx_ll_sdmmc.c ****   
 739:Drivers/STM32F1xx_HAL_Driver/Src/stm32f1xx_ll_sdmmc.c ****   /* Set Block Size for Card */ 
 740:Drivers/STM32F1xx_HAL_Driver/Src/stm32f1xx_ll_sdmmc.c ****   sdmmc_cmdinit.Argument         = 0U;
 741:Drivers/STM32F1xx_HAL_Driver/Src/stm32f1xx_ll_sdmmc.c ****   sdmmc_cmdinit.CmdIndex         = SDMMC_CMD_ERASE;
 742:Drivers/STM32F1xx_HAL_Driver/Src/stm32f1xx_ll_sdmmc.c ****   sdmmc_cmdinit.Response         = SDIO_RESPONSE_SHORT;
 743:Drivers/STM32F1xx_HAL_Driver/Src/stm32f1xx_ll_sdmmc.c ****   sdmmc_cmdinit.WaitForInterrupt = SDIO_WAIT_NO;
 744:Drivers/STM32F1xx_HAL_Driver/Src/stm32f1xx_ll_sdmmc.c ****   sdmmc_cmdinit.CPSM             = SDIO_CPSM_ENABLE;
 745:Drivers/STM32F1xx_HAL_Driver/Src/stm32f1xx_ll_sdmmc.c ****   (void)SDIO_SendCommand(SDIOx, &sdmmc_cmdinit);
 746:Drivers/STM32F1xx_HAL_Driver/Src/stm32f1xx_ll_sdmmc.c ****   
 747:Drivers/STM32F1xx_HAL_Driver/Src/stm32f1xx_ll_sdmmc.c ****   /* Check for error conditions */
 748:Drivers/STM32F1xx_HAL_Driver/Src/stm32f1xx_ll_sdmmc.c ****   errorstate = SDMMC_GetCmdResp1(SDIOx, SDMMC_CMD_ERASE, SDIO_MAXERASETIMEOUT);
 749:Drivers/STM32F1xx_HAL_Driver/Src/stm32f1xx_ll_sdmmc.c **** 
 750:Drivers/STM32F1xx_HAL_Driver/Src/stm32f1xx_ll_sdmmc.c ****   return errorstate;
 751:Drivers/STM32F1xx_HAL_Driver/Src/stm32f1xx_ll_sdmmc.c **** }
 752:Drivers/STM32F1xx_HAL_Driver/Src/stm32f1xx_ll_sdmmc.c **** 
 753:Drivers/STM32F1xx_HAL_Driver/Src/stm32f1xx_ll_sdmmc.c **** /**
 754:Drivers/STM32F1xx_HAL_Driver/Src/stm32f1xx_ll_sdmmc.c ****   * @brief  Send the Stop Transfer command and check the response.
 755:Drivers/STM32F1xx_HAL_Driver/Src/stm32f1xx_ll_sdmmc.c ****   * @param  SDIOx: Pointer to SDIO register base 
 756:Drivers/STM32F1xx_HAL_Driver/Src/stm32f1xx_ll_sdmmc.c ****   * @retval HAL status
 757:Drivers/STM32F1xx_HAL_Driver/Src/stm32f1xx_ll_sdmmc.c ****   */
 758:Drivers/STM32F1xx_HAL_Driver/Src/stm32f1xx_ll_sdmmc.c **** uint32_t SDMMC_CmdStopTransfer(SDIO_TypeDef *SDIOx)
 759:Drivers/STM32F1xx_HAL_Driver/Src/stm32f1xx_ll_sdmmc.c **** {
 760:Drivers/STM32F1xx_HAL_Driver/Src/stm32f1xx_ll_sdmmc.c ****   SDIO_CmdInitTypeDef  sdmmc_cmdinit;
 761:Drivers/STM32F1xx_HAL_Driver/Src/stm32f1xx_ll_sdmmc.c ****   uint32_t errorstate;
 762:Drivers/STM32F1xx_HAL_Driver/Src/stm32f1xx_ll_sdmmc.c ****   
 763:Drivers/STM32F1xx_HAL_Driver/Src/stm32f1xx_ll_sdmmc.c ****   /* Send CMD12 STOP_TRANSMISSION  */
 764:Drivers/STM32F1xx_HAL_Driver/Src/stm32f1xx_ll_sdmmc.c ****   sdmmc_cmdinit.Argument         = 0U;
 765:Drivers/STM32F1xx_HAL_Driver/Src/stm32f1xx_ll_sdmmc.c ****   sdmmc_cmdinit.CmdIndex         = SDMMC_CMD_STOP_TRANSMISSION;
 766:Drivers/STM32F1xx_HAL_Driver/Src/stm32f1xx_ll_sdmmc.c ****   sdmmc_cmdinit.Response         = SDIO_RESPONSE_SHORT;
 767:Drivers/STM32F1xx_HAL_Driver/Src/stm32f1xx_ll_sdmmc.c ****   sdmmc_cmdinit.WaitForInterrupt = SDIO_WAIT_NO;
 768:Drivers/STM32F1xx_HAL_Driver/Src/stm32f1xx_ll_sdmmc.c ****   sdmmc_cmdinit.CPSM             = SDIO_CPSM_ENABLE;
 769:Drivers/STM32F1xx_HAL_Driver/Src/stm32f1xx_ll_sdmmc.c ****   (void)SDIO_SendCommand(SDIOx, &sdmmc_cmdinit);
 770:Drivers/STM32F1xx_HAL_Driver/Src/stm32f1xx_ll_sdmmc.c ****   
 771:Drivers/STM32F1xx_HAL_Driver/Src/stm32f1xx_ll_sdmmc.c ****   /* Check for error conditions */
 772:Drivers/STM32F1xx_HAL_Driver/Src/stm32f1xx_ll_sdmmc.c ****   errorstate = SDMMC_GetCmdResp1(SDIOx, SDMMC_CMD_STOP_TRANSMISSION, SDIO_STOPTRANSFERTIMEOUT);
 773:Drivers/STM32F1xx_HAL_Driver/Src/stm32f1xx_ll_sdmmc.c **** 
 774:Drivers/STM32F1xx_HAL_Driver/Src/stm32f1xx_ll_sdmmc.c ****   return errorstate;
 775:Drivers/STM32F1xx_HAL_Driver/Src/stm32f1xx_ll_sdmmc.c **** }
ARM GAS  /tmp/cc3JF8Cu.s 			page 15


 776:Drivers/STM32F1xx_HAL_Driver/Src/stm32f1xx_ll_sdmmc.c **** 
 777:Drivers/STM32F1xx_HAL_Driver/Src/stm32f1xx_ll_sdmmc.c **** /**
 778:Drivers/STM32F1xx_HAL_Driver/Src/stm32f1xx_ll_sdmmc.c ****   * @brief  Send the Select Deselect command and check the response.
 779:Drivers/STM32F1xx_HAL_Driver/Src/stm32f1xx_ll_sdmmc.c ****   * @param  SDIOx: Pointer to SDIO register base 
 780:Drivers/STM32F1xx_HAL_Driver/Src/stm32f1xx_ll_sdmmc.c ****   * @param  addr: Address of the card to be selected  
 781:Drivers/STM32F1xx_HAL_Driver/Src/stm32f1xx_ll_sdmmc.c ****   * @retval HAL status
 782:Drivers/STM32F1xx_HAL_Driver/Src/stm32f1xx_ll_sdmmc.c ****   */
 783:Drivers/STM32F1xx_HAL_Driver/Src/stm32f1xx_ll_sdmmc.c **** uint32_t SDMMC_CmdSelDesel(SDIO_TypeDef *SDIOx, uint64_t Addr)
 784:Drivers/STM32F1xx_HAL_Driver/Src/stm32f1xx_ll_sdmmc.c **** {
 785:Drivers/STM32F1xx_HAL_Driver/Src/stm32f1xx_ll_sdmmc.c ****   SDIO_CmdInitTypeDef  sdmmc_cmdinit;
 786:Drivers/STM32F1xx_HAL_Driver/Src/stm32f1xx_ll_sdmmc.c ****   uint32_t errorstate;
 787:Drivers/STM32F1xx_HAL_Driver/Src/stm32f1xx_ll_sdmmc.c ****   
 788:Drivers/STM32F1xx_HAL_Driver/Src/stm32f1xx_ll_sdmmc.c ****   /* Send CMD7 SDMMC_SEL_DESEL_CARD */
 789:Drivers/STM32F1xx_HAL_Driver/Src/stm32f1xx_ll_sdmmc.c ****   sdmmc_cmdinit.Argument         = (uint32_t)Addr;
 790:Drivers/STM32F1xx_HAL_Driver/Src/stm32f1xx_ll_sdmmc.c ****   sdmmc_cmdinit.CmdIndex         = SDMMC_CMD_SEL_DESEL_CARD;
 791:Drivers/STM32F1xx_HAL_Driver/Src/stm32f1xx_ll_sdmmc.c ****   sdmmc_cmdinit.Response         = SDIO_RESPONSE_SHORT;
 792:Drivers/STM32F1xx_HAL_Driver/Src/stm32f1xx_ll_sdmmc.c ****   sdmmc_cmdinit.WaitForInterrupt = SDIO_WAIT_NO;
 793:Drivers/STM32F1xx_HAL_Driver/Src/stm32f1xx_ll_sdmmc.c ****   sdmmc_cmdinit.CPSM             = SDIO_CPSM_ENABLE;
 794:Drivers/STM32F1xx_HAL_Driver/Src/stm32f1xx_ll_sdmmc.c ****   (void)SDIO_SendCommand(SDIOx, &sdmmc_cmdinit);
 795:Drivers/STM32F1xx_HAL_Driver/Src/stm32f1xx_ll_sdmmc.c ****   
 796:Drivers/STM32F1xx_HAL_Driver/Src/stm32f1xx_ll_sdmmc.c ****   /* Check for error conditions */
 797:Drivers/STM32F1xx_HAL_Driver/Src/stm32f1xx_ll_sdmmc.c ****   errorstate = SDMMC_GetCmdResp1(SDIOx, SDMMC_CMD_SEL_DESEL_CARD, SDIO_CMDTIMEOUT);
 798:Drivers/STM32F1xx_HAL_Driver/Src/stm32f1xx_ll_sdmmc.c **** 
 799:Drivers/STM32F1xx_HAL_Driver/Src/stm32f1xx_ll_sdmmc.c ****   return errorstate;
 800:Drivers/STM32F1xx_HAL_Driver/Src/stm32f1xx_ll_sdmmc.c **** }
 801:Drivers/STM32F1xx_HAL_Driver/Src/stm32f1xx_ll_sdmmc.c **** 
 802:Drivers/STM32F1xx_HAL_Driver/Src/stm32f1xx_ll_sdmmc.c **** /**
 803:Drivers/STM32F1xx_HAL_Driver/Src/stm32f1xx_ll_sdmmc.c ****   * @brief  Send the Go Idle State command and check the response.
 804:Drivers/STM32F1xx_HAL_Driver/Src/stm32f1xx_ll_sdmmc.c ****   * @param  SDIOx: Pointer to SDIO register base 
 805:Drivers/STM32F1xx_HAL_Driver/Src/stm32f1xx_ll_sdmmc.c ****   * @retval HAL status
 806:Drivers/STM32F1xx_HAL_Driver/Src/stm32f1xx_ll_sdmmc.c ****   */
 807:Drivers/STM32F1xx_HAL_Driver/Src/stm32f1xx_ll_sdmmc.c **** uint32_t SDMMC_CmdGoIdleState(SDIO_TypeDef *SDIOx)
 808:Drivers/STM32F1xx_HAL_Driver/Src/stm32f1xx_ll_sdmmc.c **** {
 809:Drivers/STM32F1xx_HAL_Driver/Src/stm32f1xx_ll_sdmmc.c ****   SDIO_CmdInitTypeDef  sdmmc_cmdinit;
 810:Drivers/STM32F1xx_HAL_Driver/Src/stm32f1xx_ll_sdmmc.c ****   uint32_t errorstate;
 811:Drivers/STM32F1xx_HAL_Driver/Src/stm32f1xx_ll_sdmmc.c ****   
 812:Drivers/STM32F1xx_HAL_Driver/Src/stm32f1xx_ll_sdmmc.c ****   sdmmc_cmdinit.Argument         = 0U;
 813:Drivers/STM32F1xx_HAL_Driver/Src/stm32f1xx_ll_sdmmc.c ****   sdmmc_cmdinit.CmdIndex         = SDMMC_CMD_GO_IDLE_STATE;
 814:Drivers/STM32F1xx_HAL_Driver/Src/stm32f1xx_ll_sdmmc.c ****   sdmmc_cmdinit.Response         = SDIO_RESPONSE_NO;
 815:Drivers/STM32F1xx_HAL_Driver/Src/stm32f1xx_ll_sdmmc.c ****   sdmmc_cmdinit.WaitForInterrupt = SDIO_WAIT_NO;
 816:Drivers/STM32F1xx_HAL_Driver/Src/stm32f1xx_ll_sdmmc.c ****   sdmmc_cmdinit.CPSM             = SDIO_CPSM_ENABLE;
 817:Drivers/STM32F1xx_HAL_Driver/Src/stm32f1xx_ll_sdmmc.c ****   (void)SDIO_SendCommand(SDIOx, &sdmmc_cmdinit);
 818:Drivers/STM32F1xx_HAL_Driver/Src/stm32f1xx_ll_sdmmc.c ****   
 819:Drivers/STM32F1xx_HAL_Driver/Src/stm32f1xx_ll_sdmmc.c ****   /* Check for error conditions */
 820:Drivers/STM32F1xx_HAL_Driver/Src/stm32f1xx_ll_sdmmc.c ****   errorstate = SDMMC_GetCmdError(SDIOx);
 821:Drivers/STM32F1xx_HAL_Driver/Src/stm32f1xx_ll_sdmmc.c **** 
 822:Drivers/STM32F1xx_HAL_Driver/Src/stm32f1xx_ll_sdmmc.c ****   return errorstate;
 823:Drivers/STM32F1xx_HAL_Driver/Src/stm32f1xx_ll_sdmmc.c **** }
 824:Drivers/STM32F1xx_HAL_Driver/Src/stm32f1xx_ll_sdmmc.c **** 
 825:Drivers/STM32F1xx_HAL_Driver/Src/stm32f1xx_ll_sdmmc.c **** /**
 826:Drivers/STM32F1xx_HAL_Driver/Src/stm32f1xx_ll_sdmmc.c ****   * @brief  Send the Operating Condition command and check the response.
 827:Drivers/STM32F1xx_HAL_Driver/Src/stm32f1xx_ll_sdmmc.c ****   * @param  SDIOx: Pointer to SDIO register base 
 828:Drivers/STM32F1xx_HAL_Driver/Src/stm32f1xx_ll_sdmmc.c ****   * @retval HAL status
 829:Drivers/STM32F1xx_HAL_Driver/Src/stm32f1xx_ll_sdmmc.c ****   */
 830:Drivers/STM32F1xx_HAL_Driver/Src/stm32f1xx_ll_sdmmc.c **** uint32_t SDMMC_CmdOperCond(SDIO_TypeDef *SDIOx)
 831:Drivers/STM32F1xx_HAL_Driver/Src/stm32f1xx_ll_sdmmc.c **** {
 832:Drivers/STM32F1xx_HAL_Driver/Src/stm32f1xx_ll_sdmmc.c ****   SDIO_CmdInitTypeDef  sdmmc_cmdinit;
ARM GAS  /tmp/cc3JF8Cu.s 			page 16


 833:Drivers/STM32F1xx_HAL_Driver/Src/stm32f1xx_ll_sdmmc.c ****   uint32_t errorstate;
 834:Drivers/STM32F1xx_HAL_Driver/Src/stm32f1xx_ll_sdmmc.c ****   
 835:Drivers/STM32F1xx_HAL_Driver/Src/stm32f1xx_ll_sdmmc.c ****   /* Send CMD8 to verify SD card interface operating condition */
 836:Drivers/STM32F1xx_HAL_Driver/Src/stm32f1xx_ll_sdmmc.c ****   /* Argument: - [31:12]: Reserved (shall be set to '0')
 837:Drivers/STM32F1xx_HAL_Driver/Src/stm32f1xx_ll_sdmmc.c ****   - [11:8]: Supply Voltage (VHS) 0x1 (Range: 2.7-3.6 V)
 838:Drivers/STM32F1xx_HAL_Driver/Src/stm32f1xx_ll_sdmmc.c ****   - [7:0]: Check Pattern (recommended 0xAA) */
 839:Drivers/STM32F1xx_HAL_Driver/Src/stm32f1xx_ll_sdmmc.c ****   /* CMD Response: R7 */
 840:Drivers/STM32F1xx_HAL_Driver/Src/stm32f1xx_ll_sdmmc.c ****   sdmmc_cmdinit.Argument         = SDMMC_CHECK_PATTERN;
 841:Drivers/STM32F1xx_HAL_Driver/Src/stm32f1xx_ll_sdmmc.c ****   sdmmc_cmdinit.CmdIndex         = SDMMC_CMD_HS_SEND_EXT_CSD;
 842:Drivers/STM32F1xx_HAL_Driver/Src/stm32f1xx_ll_sdmmc.c ****   sdmmc_cmdinit.Response         = SDIO_RESPONSE_SHORT;
 843:Drivers/STM32F1xx_HAL_Driver/Src/stm32f1xx_ll_sdmmc.c ****   sdmmc_cmdinit.WaitForInterrupt = SDIO_WAIT_NO;
 844:Drivers/STM32F1xx_HAL_Driver/Src/stm32f1xx_ll_sdmmc.c ****   sdmmc_cmdinit.CPSM             = SDIO_CPSM_ENABLE;
 845:Drivers/STM32F1xx_HAL_Driver/Src/stm32f1xx_ll_sdmmc.c ****   (void)SDIO_SendCommand(SDIOx, &sdmmc_cmdinit);
 846:Drivers/STM32F1xx_HAL_Driver/Src/stm32f1xx_ll_sdmmc.c ****   
 847:Drivers/STM32F1xx_HAL_Driver/Src/stm32f1xx_ll_sdmmc.c ****   /* Check for error conditions */
 848:Drivers/STM32F1xx_HAL_Driver/Src/stm32f1xx_ll_sdmmc.c ****   errorstate = SDMMC_GetCmdResp7(SDIOx);
 849:Drivers/STM32F1xx_HAL_Driver/Src/stm32f1xx_ll_sdmmc.c **** 
 850:Drivers/STM32F1xx_HAL_Driver/Src/stm32f1xx_ll_sdmmc.c ****   return errorstate;
 851:Drivers/STM32F1xx_HAL_Driver/Src/stm32f1xx_ll_sdmmc.c **** }
 852:Drivers/STM32F1xx_HAL_Driver/Src/stm32f1xx_ll_sdmmc.c **** 
 853:Drivers/STM32F1xx_HAL_Driver/Src/stm32f1xx_ll_sdmmc.c **** /**
 854:Drivers/STM32F1xx_HAL_Driver/Src/stm32f1xx_ll_sdmmc.c ****   * @brief  Send the Application command to verify that that the next command 
 855:Drivers/STM32F1xx_HAL_Driver/Src/stm32f1xx_ll_sdmmc.c ****   *         is an application specific com-mand rather than a standard command
 856:Drivers/STM32F1xx_HAL_Driver/Src/stm32f1xx_ll_sdmmc.c ****   *         and check the response.
 857:Drivers/STM32F1xx_HAL_Driver/Src/stm32f1xx_ll_sdmmc.c ****   * @param  SDIOx: Pointer to SDIO register base 
 858:Drivers/STM32F1xx_HAL_Driver/Src/stm32f1xx_ll_sdmmc.c ****   * @param  Argument: Command Argument 
 859:Drivers/STM32F1xx_HAL_Driver/Src/stm32f1xx_ll_sdmmc.c ****   * @retval HAL status
 860:Drivers/STM32F1xx_HAL_Driver/Src/stm32f1xx_ll_sdmmc.c ****   */
 861:Drivers/STM32F1xx_HAL_Driver/Src/stm32f1xx_ll_sdmmc.c **** uint32_t SDMMC_CmdAppCommand(SDIO_TypeDef *SDIOx, uint32_t Argument)
 862:Drivers/STM32F1xx_HAL_Driver/Src/stm32f1xx_ll_sdmmc.c **** {
 863:Drivers/STM32F1xx_HAL_Driver/Src/stm32f1xx_ll_sdmmc.c ****   SDIO_CmdInitTypeDef  sdmmc_cmdinit;
 864:Drivers/STM32F1xx_HAL_Driver/Src/stm32f1xx_ll_sdmmc.c ****   uint32_t errorstate;
 865:Drivers/STM32F1xx_HAL_Driver/Src/stm32f1xx_ll_sdmmc.c ****   
 866:Drivers/STM32F1xx_HAL_Driver/Src/stm32f1xx_ll_sdmmc.c ****   sdmmc_cmdinit.Argument         = (uint32_t)Argument;
 867:Drivers/STM32F1xx_HAL_Driver/Src/stm32f1xx_ll_sdmmc.c ****   sdmmc_cmdinit.CmdIndex         = SDMMC_CMD_APP_CMD;
 868:Drivers/STM32F1xx_HAL_Driver/Src/stm32f1xx_ll_sdmmc.c ****   sdmmc_cmdinit.Response         = SDIO_RESPONSE_SHORT;
 869:Drivers/STM32F1xx_HAL_Driver/Src/stm32f1xx_ll_sdmmc.c ****   sdmmc_cmdinit.WaitForInterrupt = SDIO_WAIT_NO;
 870:Drivers/STM32F1xx_HAL_Driver/Src/stm32f1xx_ll_sdmmc.c ****   sdmmc_cmdinit.CPSM             = SDIO_CPSM_ENABLE;
 871:Drivers/STM32F1xx_HAL_Driver/Src/stm32f1xx_ll_sdmmc.c ****   (void)SDIO_SendCommand(SDIOx, &sdmmc_cmdinit);
 872:Drivers/STM32F1xx_HAL_Driver/Src/stm32f1xx_ll_sdmmc.c ****   
 873:Drivers/STM32F1xx_HAL_Driver/Src/stm32f1xx_ll_sdmmc.c ****   /* Check for error conditions */
 874:Drivers/STM32F1xx_HAL_Driver/Src/stm32f1xx_ll_sdmmc.c ****   /* If there is a HAL_ERROR, it is a MMC card, else
 875:Drivers/STM32F1xx_HAL_Driver/Src/stm32f1xx_ll_sdmmc.c ****   it is a SD card: SD card 2.0 (voltage range mismatch)
 876:Drivers/STM32F1xx_HAL_Driver/Src/stm32f1xx_ll_sdmmc.c ****      or SD card 1.x */
 877:Drivers/STM32F1xx_HAL_Driver/Src/stm32f1xx_ll_sdmmc.c ****   errorstate = SDMMC_GetCmdResp1(SDIOx, SDMMC_CMD_APP_CMD, SDIO_CMDTIMEOUT);
 878:Drivers/STM32F1xx_HAL_Driver/Src/stm32f1xx_ll_sdmmc.c **** 
 879:Drivers/STM32F1xx_HAL_Driver/Src/stm32f1xx_ll_sdmmc.c ****   return errorstate;
 880:Drivers/STM32F1xx_HAL_Driver/Src/stm32f1xx_ll_sdmmc.c **** }
 881:Drivers/STM32F1xx_HAL_Driver/Src/stm32f1xx_ll_sdmmc.c **** 
 882:Drivers/STM32F1xx_HAL_Driver/Src/stm32f1xx_ll_sdmmc.c **** /**
 883:Drivers/STM32F1xx_HAL_Driver/Src/stm32f1xx_ll_sdmmc.c ****   * @brief  Send the command asking the accessed card to send its operating 
 884:Drivers/STM32F1xx_HAL_Driver/Src/stm32f1xx_ll_sdmmc.c ****   *         condition register (OCR)
 885:Drivers/STM32F1xx_HAL_Driver/Src/stm32f1xx_ll_sdmmc.c ****   * @param  SDIOx: Pointer to SDIO register base 
 886:Drivers/STM32F1xx_HAL_Driver/Src/stm32f1xx_ll_sdmmc.c ****   * @param  Argument: Command Argument
 887:Drivers/STM32F1xx_HAL_Driver/Src/stm32f1xx_ll_sdmmc.c ****   * @retval HAL status
 888:Drivers/STM32F1xx_HAL_Driver/Src/stm32f1xx_ll_sdmmc.c ****   */
 889:Drivers/STM32F1xx_HAL_Driver/Src/stm32f1xx_ll_sdmmc.c **** uint32_t SDMMC_CmdAppOperCommand(SDIO_TypeDef *SDIOx, uint32_t Argument)
ARM GAS  /tmp/cc3JF8Cu.s 			page 17


 890:Drivers/STM32F1xx_HAL_Driver/Src/stm32f1xx_ll_sdmmc.c **** {
 891:Drivers/STM32F1xx_HAL_Driver/Src/stm32f1xx_ll_sdmmc.c ****   SDIO_CmdInitTypeDef  sdmmc_cmdinit;
 892:Drivers/STM32F1xx_HAL_Driver/Src/stm32f1xx_ll_sdmmc.c ****   uint32_t errorstate;
 893:Drivers/STM32F1xx_HAL_Driver/Src/stm32f1xx_ll_sdmmc.c ****   
 894:Drivers/STM32F1xx_HAL_Driver/Src/stm32f1xx_ll_sdmmc.c ****   sdmmc_cmdinit.Argument         = SDMMC_VOLTAGE_WINDOW_SD | Argument;
 895:Drivers/STM32F1xx_HAL_Driver/Src/stm32f1xx_ll_sdmmc.c ****   sdmmc_cmdinit.CmdIndex         = SDMMC_CMD_SD_APP_OP_COND;
 896:Drivers/STM32F1xx_HAL_Driver/Src/stm32f1xx_ll_sdmmc.c ****   sdmmc_cmdinit.Response         = SDIO_RESPONSE_SHORT;
 897:Drivers/STM32F1xx_HAL_Driver/Src/stm32f1xx_ll_sdmmc.c ****   sdmmc_cmdinit.WaitForInterrupt = SDIO_WAIT_NO;
 898:Drivers/STM32F1xx_HAL_Driver/Src/stm32f1xx_ll_sdmmc.c ****   sdmmc_cmdinit.CPSM             = SDIO_CPSM_ENABLE;
 899:Drivers/STM32F1xx_HAL_Driver/Src/stm32f1xx_ll_sdmmc.c ****   (void)SDIO_SendCommand(SDIOx, &sdmmc_cmdinit);
 900:Drivers/STM32F1xx_HAL_Driver/Src/stm32f1xx_ll_sdmmc.c ****   
 901:Drivers/STM32F1xx_HAL_Driver/Src/stm32f1xx_ll_sdmmc.c ****   /* Check for error conditions */
 902:Drivers/STM32F1xx_HAL_Driver/Src/stm32f1xx_ll_sdmmc.c ****   errorstate = SDMMC_GetCmdResp3(SDIOx);
 903:Drivers/STM32F1xx_HAL_Driver/Src/stm32f1xx_ll_sdmmc.c **** 
 904:Drivers/STM32F1xx_HAL_Driver/Src/stm32f1xx_ll_sdmmc.c ****   return errorstate;
 905:Drivers/STM32F1xx_HAL_Driver/Src/stm32f1xx_ll_sdmmc.c **** }
 906:Drivers/STM32F1xx_HAL_Driver/Src/stm32f1xx_ll_sdmmc.c **** 
 907:Drivers/STM32F1xx_HAL_Driver/Src/stm32f1xx_ll_sdmmc.c **** /**
 908:Drivers/STM32F1xx_HAL_Driver/Src/stm32f1xx_ll_sdmmc.c ****   * @brief  Send the Bus Width command and check the response.
 909:Drivers/STM32F1xx_HAL_Driver/Src/stm32f1xx_ll_sdmmc.c ****   * @param  SDIOx: Pointer to SDIO register base 
 910:Drivers/STM32F1xx_HAL_Driver/Src/stm32f1xx_ll_sdmmc.c ****   * @param  BusWidth: BusWidth
 911:Drivers/STM32F1xx_HAL_Driver/Src/stm32f1xx_ll_sdmmc.c ****   * @retval HAL status
 912:Drivers/STM32F1xx_HAL_Driver/Src/stm32f1xx_ll_sdmmc.c ****   */
 913:Drivers/STM32F1xx_HAL_Driver/Src/stm32f1xx_ll_sdmmc.c **** uint32_t SDMMC_CmdBusWidth(SDIO_TypeDef *SDIOx, uint32_t BusWidth)
 914:Drivers/STM32F1xx_HAL_Driver/Src/stm32f1xx_ll_sdmmc.c **** {
 915:Drivers/STM32F1xx_HAL_Driver/Src/stm32f1xx_ll_sdmmc.c ****   SDIO_CmdInitTypeDef  sdmmc_cmdinit;
 916:Drivers/STM32F1xx_HAL_Driver/Src/stm32f1xx_ll_sdmmc.c ****   uint32_t errorstate;
 917:Drivers/STM32F1xx_HAL_Driver/Src/stm32f1xx_ll_sdmmc.c ****   
 918:Drivers/STM32F1xx_HAL_Driver/Src/stm32f1xx_ll_sdmmc.c ****   sdmmc_cmdinit.Argument         = (uint32_t)BusWidth;
 919:Drivers/STM32F1xx_HAL_Driver/Src/stm32f1xx_ll_sdmmc.c ****   sdmmc_cmdinit.CmdIndex         = SDMMC_CMD_APP_SD_SET_BUSWIDTH;
 920:Drivers/STM32F1xx_HAL_Driver/Src/stm32f1xx_ll_sdmmc.c ****   sdmmc_cmdinit.Response         = SDIO_RESPONSE_SHORT;
 921:Drivers/STM32F1xx_HAL_Driver/Src/stm32f1xx_ll_sdmmc.c ****   sdmmc_cmdinit.WaitForInterrupt = SDIO_WAIT_NO;
 922:Drivers/STM32F1xx_HAL_Driver/Src/stm32f1xx_ll_sdmmc.c ****   sdmmc_cmdinit.CPSM             = SDIO_CPSM_ENABLE;
 923:Drivers/STM32F1xx_HAL_Driver/Src/stm32f1xx_ll_sdmmc.c ****   (void)SDIO_SendCommand(SDIOx, &sdmmc_cmdinit);
 924:Drivers/STM32F1xx_HAL_Driver/Src/stm32f1xx_ll_sdmmc.c ****   
 925:Drivers/STM32F1xx_HAL_Driver/Src/stm32f1xx_ll_sdmmc.c ****   /* Check for error conditions */
 926:Drivers/STM32F1xx_HAL_Driver/Src/stm32f1xx_ll_sdmmc.c ****   errorstate = SDMMC_GetCmdResp1(SDIOx, SDMMC_CMD_APP_SD_SET_BUSWIDTH, SDIO_CMDTIMEOUT);
 927:Drivers/STM32F1xx_HAL_Driver/Src/stm32f1xx_ll_sdmmc.c **** 
 928:Drivers/STM32F1xx_HAL_Driver/Src/stm32f1xx_ll_sdmmc.c ****   return errorstate;
 929:Drivers/STM32F1xx_HAL_Driver/Src/stm32f1xx_ll_sdmmc.c **** }
 930:Drivers/STM32F1xx_HAL_Driver/Src/stm32f1xx_ll_sdmmc.c **** 
 931:Drivers/STM32F1xx_HAL_Driver/Src/stm32f1xx_ll_sdmmc.c **** /**
 932:Drivers/STM32F1xx_HAL_Driver/Src/stm32f1xx_ll_sdmmc.c ****   * @brief  Send the Send SCR command and check the response.
 933:Drivers/STM32F1xx_HAL_Driver/Src/stm32f1xx_ll_sdmmc.c ****   * @param  SDIOx: Pointer to SDIO register base 
 934:Drivers/STM32F1xx_HAL_Driver/Src/stm32f1xx_ll_sdmmc.c ****   * @retval HAL status
 935:Drivers/STM32F1xx_HAL_Driver/Src/stm32f1xx_ll_sdmmc.c ****   */
 936:Drivers/STM32F1xx_HAL_Driver/Src/stm32f1xx_ll_sdmmc.c **** uint32_t SDMMC_CmdSendSCR(SDIO_TypeDef *SDIOx)
 937:Drivers/STM32F1xx_HAL_Driver/Src/stm32f1xx_ll_sdmmc.c **** {
 938:Drivers/STM32F1xx_HAL_Driver/Src/stm32f1xx_ll_sdmmc.c ****   SDIO_CmdInitTypeDef  sdmmc_cmdinit;
 939:Drivers/STM32F1xx_HAL_Driver/Src/stm32f1xx_ll_sdmmc.c ****   uint32_t errorstate;
 940:Drivers/STM32F1xx_HAL_Driver/Src/stm32f1xx_ll_sdmmc.c ****   
 941:Drivers/STM32F1xx_HAL_Driver/Src/stm32f1xx_ll_sdmmc.c ****   /* Send CMD51 SD_APP_SEND_SCR */
 942:Drivers/STM32F1xx_HAL_Driver/Src/stm32f1xx_ll_sdmmc.c ****   sdmmc_cmdinit.Argument         = 0U;
 943:Drivers/STM32F1xx_HAL_Driver/Src/stm32f1xx_ll_sdmmc.c ****   sdmmc_cmdinit.CmdIndex         = SDMMC_CMD_SD_APP_SEND_SCR;
 944:Drivers/STM32F1xx_HAL_Driver/Src/stm32f1xx_ll_sdmmc.c ****   sdmmc_cmdinit.Response         = SDIO_RESPONSE_SHORT;
 945:Drivers/STM32F1xx_HAL_Driver/Src/stm32f1xx_ll_sdmmc.c ****   sdmmc_cmdinit.WaitForInterrupt = SDIO_WAIT_NO;
 946:Drivers/STM32F1xx_HAL_Driver/Src/stm32f1xx_ll_sdmmc.c ****   sdmmc_cmdinit.CPSM             = SDIO_CPSM_ENABLE;
ARM GAS  /tmp/cc3JF8Cu.s 			page 18


 947:Drivers/STM32F1xx_HAL_Driver/Src/stm32f1xx_ll_sdmmc.c ****   (void)SDIO_SendCommand(SDIOx, &sdmmc_cmdinit);
 948:Drivers/STM32F1xx_HAL_Driver/Src/stm32f1xx_ll_sdmmc.c ****   
 949:Drivers/STM32F1xx_HAL_Driver/Src/stm32f1xx_ll_sdmmc.c ****   /* Check for error conditions */
 950:Drivers/STM32F1xx_HAL_Driver/Src/stm32f1xx_ll_sdmmc.c ****   errorstate = SDMMC_GetCmdResp1(SDIOx, SDMMC_CMD_SD_APP_SEND_SCR, SDIO_CMDTIMEOUT);
 951:Drivers/STM32F1xx_HAL_Driver/Src/stm32f1xx_ll_sdmmc.c **** 
 952:Drivers/STM32F1xx_HAL_Driver/Src/stm32f1xx_ll_sdmmc.c ****   return errorstate;
 953:Drivers/STM32F1xx_HAL_Driver/Src/stm32f1xx_ll_sdmmc.c **** }
 954:Drivers/STM32F1xx_HAL_Driver/Src/stm32f1xx_ll_sdmmc.c **** 
 955:Drivers/STM32F1xx_HAL_Driver/Src/stm32f1xx_ll_sdmmc.c **** /**
 956:Drivers/STM32F1xx_HAL_Driver/Src/stm32f1xx_ll_sdmmc.c ****   * @brief  Send the Send CID command and check the response.
 957:Drivers/STM32F1xx_HAL_Driver/Src/stm32f1xx_ll_sdmmc.c ****   * @param  SDIOx: Pointer to SDIO register base 
 958:Drivers/STM32F1xx_HAL_Driver/Src/stm32f1xx_ll_sdmmc.c ****   * @retval HAL status
 959:Drivers/STM32F1xx_HAL_Driver/Src/stm32f1xx_ll_sdmmc.c ****   */
 960:Drivers/STM32F1xx_HAL_Driver/Src/stm32f1xx_ll_sdmmc.c **** uint32_t SDMMC_CmdSendCID(SDIO_TypeDef *SDIOx)
 961:Drivers/STM32F1xx_HAL_Driver/Src/stm32f1xx_ll_sdmmc.c **** {
 962:Drivers/STM32F1xx_HAL_Driver/Src/stm32f1xx_ll_sdmmc.c ****   SDIO_CmdInitTypeDef  sdmmc_cmdinit;
 963:Drivers/STM32F1xx_HAL_Driver/Src/stm32f1xx_ll_sdmmc.c ****   uint32_t errorstate;
 964:Drivers/STM32F1xx_HAL_Driver/Src/stm32f1xx_ll_sdmmc.c ****   
 965:Drivers/STM32F1xx_HAL_Driver/Src/stm32f1xx_ll_sdmmc.c ****   /* Send CMD2 ALL_SEND_CID */
 966:Drivers/STM32F1xx_HAL_Driver/Src/stm32f1xx_ll_sdmmc.c ****   sdmmc_cmdinit.Argument         = 0U;
 967:Drivers/STM32F1xx_HAL_Driver/Src/stm32f1xx_ll_sdmmc.c ****   sdmmc_cmdinit.CmdIndex         = SDMMC_CMD_ALL_SEND_CID;
 968:Drivers/STM32F1xx_HAL_Driver/Src/stm32f1xx_ll_sdmmc.c ****   sdmmc_cmdinit.Response         = SDIO_RESPONSE_LONG;
 969:Drivers/STM32F1xx_HAL_Driver/Src/stm32f1xx_ll_sdmmc.c ****   sdmmc_cmdinit.WaitForInterrupt = SDIO_WAIT_NO;
 970:Drivers/STM32F1xx_HAL_Driver/Src/stm32f1xx_ll_sdmmc.c ****   sdmmc_cmdinit.CPSM             = SDIO_CPSM_ENABLE;
 971:Drivers/STM32F1xx_HAL_Driver/Src/stm32f1xx_ll_sdmmc.c ****   (void)SDIO_SendCommand(SDIOx, &sdmmc_cmdinit);
 972:Drivers/STM32F1xx_HAL_Driver/Src/stm32f1xx_ll_sdmmc.c ****   
 973:Drivers/STM32F1xx_HAL_Driver/Src/stm32f1xx_ll_sdmmc.c ****   /* Check for error conditions */
 974:Drivers/STM32F1xx_HAL_Driver/Src/stm32f1xx_ll_sdmmc.c ****   errorstate = SDMMC_GetCmdResp2(SDIOx);
 975:Drivers/STM32F1xx_HAL_Driver/Src/stm32f1xx_ll_sdmmc.c **** 
 976:Drivers/STM32F1xx_HAL_Driver/Src/stm32f1xx_ll_sdmmc.c ****   return errorstate;
 977:Drivers/STM32F1xx_HAL_Driver/Src/stm32f1xx_ll_sdmmc.c **** }
 978:Drivers/STM32F1xx_HAL_Driver/Src/stm32f1xx_ll_sdmmc.c **** 
 979:Drivers/STM32F1xx_HAL_Driver/Src/stm32f1xx_ll_sdmmc.c **** /**
 980:Drivers/STM32F1xx_HAL_Driver/Src/stm32f1xx_ll_sdmmc.c ****   * @brief  Send the Send CSD command and check the response.
 981:Drivers/STM32F1xx_HAL_Driver/Src/stm32f1xx_ll_sdmmc.c ****   * @param  SDIOx: Pointer to SDIO register base 
 982:Drivers/STM32F1xx_HAL_Driver/Src/stm32f1xx_ll_sdmmc.c ****   * @param  Argument: Command Argument
 983:Drivers/STM32F1xx_HAL_Driver/Src/stm32f1xx_ll_sdmmc.c ****   * @retval HAL status
 984:Drivers/STM32F1xx_HAL_Driver/Src/stm32f1xx_ll_sdmmc.c ****   */
 985:Drivers/STM32F1xx_HAL_Driver/Src/stm32f1xx_ll_sdmmc.c **** uint32_t SDMMC_CmdSendCSD(SDIO_TypeDef *SDIOx, uint32_t Argument)
 986:Drivers/STM32F1xx_HAL_Driver/Src/stm32f1xx_ll_sdmmc.c **** {
 987:Drivers/STM32F1xx_HAL_Driver/Src/stm32f1xx_ll_sdmmc.c ****   SDIO_CmdInitTypeDef  sdmmc_cmdinit;
 988:Drivers/STM32F1xx_HAL_Driver/Src/stm32f1xx_ll_sdmmc.c ****   uint32_t errorstate;
 989:Drivers/STM32F1xx_HAL_Driver/Src/stm32f1xx_ll_sdmmc.c ****   
 990:Drivers/STM32F1xx_HAL_Driver/Src/stm32f1xx_ll_sdmmc.c ****   /* Send CMD9 SEND_CSD */
 991:Drivers/STM32F1xx_HAL_Driver/Src/stm32f1xx_ll_sdmmc.c ****   sdmmc_cmdinit.Argument         = Argument;
 992:Drivers/STM32F1xx_HAL_Driver/Src/stm32f1xx_ll_sdmmc.c ****   sdmmc_cmdinit.CmdIndex         = SDMMC_CMD_SEND_CSD;
 993:Drivers/STM32F1xx_HAL_Driver/Src/stm32f1xx_ll_sdmmc.c ****   sdmmc_cmdinit.Response         = SDIO_RESPONSE_LONG;
 994:Drivers/STM32F1xx_HAL_Driver/Src/stm32f1xx_ll_sdmmc.c ****   sdmmc_cmdinit.WaitForInterrupt = SDIO_WAIT_NO;
 995:Drivers/STM32F1xx_HAL_Driver/Src/stm32f1xx_ll_sdmmc.c ****   sdmmc_cmdinit.CPSM             = SDIO_CPSM_ENABLE;
 996:Drivers/STM32F1xx_HAL_Driver/Src/stm32f1xx_ll_sdmmc.c ****   (void)SDIO_SendCommand(SDIOx, &sdmmc_cmdinit);
 997:Drivers/STM32F1xx_HAL_Driver/Src/stm32f1xx_ll_sdmmc.c ****   
 998:Drivers/STM32F1xx_HAL_Driver/Src/stm32f1xx_ll_sdmmc.c ****   /* Check for error conditions */
 999:Drivers/STM32F1xx_HAL_Driver/Src/stm32f1xx_ll_sdmmc.c ****   errorstate = SDMMC_GetCmdResp2(SDIOx);
1000:Drivers/STM32F1xx_HAL_Driver/Src/stm32f1xx_ll_sdmmc.c **** 
1001:Drivers/STM32F1xx_HAL_Driver/Src/stm32f1xx_ll_sdmmc.c ****   return errorstate;
1002:Drivers/STM32F1xx_HAL_Driver/Src/stm32f1xx_ll_sdmmc.c **** }
1003:Drivers/STM32F1xx_HAL_Driver/Src/stm32f1xx_ll_sdmmc.c **** 
ARM GAS  /tmp/cc3JF8Cu.s 			page 19


1004:Drivers/STM32F1xx_HAL_Driver/Src/stm32f1xx_ll_sdmmc.c **** /**
1005:Drivers/STM32F1xx_HAL_Driver/Src/stm32f1xx_ll_sdmmc.c ****   * @brief  Send the Send CSD command and check the response.
1006:Drivers/STM32F1xx_HAL_Driver/Src/stm32f1xx_ll_sdmmc.c ****   * @param  SDIOx: Pointer to SDIO register base 
1007:Drivers/STM32F1xx_HAL_Driver/Src/stm32f1xx_ll_sdmmc.c ****   * @param  pRCA: Card RCA  
1008:Drivers/STM32F1xx_HAL_Driver/Src/stm32f1xx_ll_sdmmc.c ****   * @retval HAL status
1009:Drivers/STM32F1xx_HAL_Driver/Src/stm32f1xx_ll_sdmmc.c ****   */
1010:Drivers/STM32F1xx_HAL_Driver/Src/stm32f1xx_ll_sdmmc.c **** uint32_t SDMMC_CmdSetRelAdd(SDIO_TypeDef *SDIOx, uint16_t *pRCA)
1011:Drivers/STM32F1xx_HAL_Driver/Src/stm32f1xx_ll_sdmmc.c **** {
1012:Drivers/STM32F1xx_HAL_Driver/Src/stm32f1xx_ll_sdmmc.c ****   SDIO_CmdInitTypeDef  sdmmc_cmdinit;
1013:Drivers/STM32F1xx_HAL_Driver/Src/stm32f1xx_ll_sdmmc.c ****   uint32_t errorstate;
1014:Drivers/STM32F1xx_HAL_Driver/Src/stm32f1xx_ll_sdmmc.c ****   
1015:Drivers/STM32F1xx_HAL_Driver/Src/stm32f1xx_ll_sdmmc.c ****   /* Send CMD3 SD_CMD_SET_REL_ADDR */
1016:Drivers/STM32F1xx_HAL_Driver/Src/stm32f1xx_ll_sdmmc.c ****   sdmmc_cmdinit.Argument         = 0U;
1017:Drivers/STM32F1xx_HAL_Driver/Src/stm32f1xx_ll_sdmmc.c ****   sdmmc_cmdinit.CmdIndex         = SDMMC_CMD_SET_REL_ADDR;
1018:Drivers/STM32F1xx_HAL_Driver/Src/stm32f1xx_ll_sdmmc.c ****   sdmmc_cmdinit.Response         = SDIO_RESPONSE_SHORT;
1019:Drivers/STM32F1xx_HAL_Driver/Src/stm32f1xx_ll_sdmmc.c ****   sdmmc_cmdinit.WaitForInterrupt = SDIO_WAIT_NO;
1020:Drivers/STM32F1xx_HAL_Driver/Src/stm32f1xx_ll_sdmmc.c ****   sdmmc_cmdinit.CPSM             = SDIO_CPSM_ENABLE;
1021:Drivers/STM32F1xx_HAL_Driver/Src/stm32f1xx_ll_sdmmc.c ****   (void)SDIO_SendCommand(SDIOx, &sdmmc_cmdinit);
1022:Drivers/STM32F1xx_HAL_Driver/Src/stm32f1xx_ll_sdmmc.c ****   
1023:Drivers/STM32F1xx_HAL_Driver/Src/stm32f1xx_ll_sdmmc.c ****   /* Check for error conditions */
1024:Drivers/STM32F1xx_HAL_Driver/Src/stm32f1xx_ll_sdmmc.c ****   errorstate = SDMMC_GetCmdResp6(SDIOx, SDMMC_CMD_SET_REL_ADDR, pRCA);
1025:Drivers/STM32F1xx_HAL_Driver/Src/stm32f1xx_ll_sdmmc.c **** 
1026:Drivers/STM32F1xx_HAL_Driver/Src/stm32f1xx_ll_sdmmc.c ****   return errorstate;
1027:Drivers/STM32F1xx_HAL_Driver/Src/stm32f1xx_ll_sdmmc.c **** }
1028:Drivers/STM32F1xx_HAL_Driver/Src/stm32f1xx_ll_sdmmc.c **** 
1029:Drivers/STM32F1xx_HAL_Driver/Src/stm32f1xx_ll_sdmmc.c **** /**
1030:Drivers/STM32F1xx_HAL_Driver/Src/stm32f1xx_ll_sdmmc.c ****   * @brief  Send the Status command and check the response.
1031:Drivers/STM32F1xx_HAL_Driver/Src/stm32f1xx_ll_sdmmc.c ****   * @param  SDIOx: Pointer to SDIO register base 
1032:Drivers/STM32F1xx_HAL_Driver/Src/stm32f1xx_ll_sdmmc.c ****   * @param  Argument: Command Argument
1033:Drivers/STM32F1xx_HAL_Driver/Src/stm32f1xx_ll_sdmmc.c ****   * @retval HAL status
1034:Drivers/STM32F1xx_HAL_Driver/Src/stm32f1xx_ll_sdmmc.c ****   */
1035:Drivers/STM32F1xx_HAL_Driver/Src/stm32f1xx_ll_sdmmc.c **** uint32_t SDMMC_CmdSendStatus(SDIO_TypeDef *SDIOx, uint32_t Argument)
1036:Drivers/STM32F1xx_HAL_Driver/Src/stm32f1xx_ll_sdmmc.c **** {
1037:Drivers/STM32F1xx_HAL_Driver/Src/stm32f1xx_ll_sdmmc.c ****   SDIO_CmdInitTypeDef  sdmmc_cmdinit;
1038:Drivers/STM32F1xx_HAL_Driver/Src/stm32f1xx_ll_sdmmc.c ****   uint32_t errorstate;
1039:Drivers/STM32F1xx_HAL_Driver/Src/stm32f1xx_ll_sdmmc.c ****   
1040:Drivers/STM32F1xx_HAL_Driver/Src/stm32f1xx_ll_sdmmc.c ****   sdmmc_cmdinit.Argument         = Argument;
1041:Drivers/STM32F1xx_HAL_Driver/Src/stm32f1xx_ll_sdmmc.c ****   sdmmc_cmdinit.CmdIndex         = SDMMC_CMD_SEND_STATUS;
1042:Drivers/STM32F1xx_HAL_Driver/Src/stm32f1xx_ll_sdmmc.c ****   sdmmc_cmdinit.Response         = SDIO_RESPONSE_SHORT;
1043:Drivers/STM32F1xx_HAL_Driver/Src/stm32f1xx_ll_sdmmc.c ****   sdmmc_cmdinit.WaitForInterrupt = SDIO_WAIT_NO;
1044:Drivers/STM32F1xx_HAL_Driver/Src/stm32f1xx_ll_sdmmc.c ****   sdmmc_cmdinit.CPSM             = SDIO_CPSM_ENABLE;
1045:Drivers/STM32F1xx_HAL_Driver/Src/stm32f1xx_ll_sdmmc.c ****   (void)SDIO_SendCommand(SDIOx, &sdmmc_cmdinit);
1046:Drivers/STM32F1xx_HAL_Driver/Src/stm32f1xx_ll_sdmmc.c ****   
1047:Drivers/STM32F1xx_HAL_Driver/Src/stm32f1xx_ll_sdmmc.c ****   /* Check for error conditions */
1048:Drivers/STM32F1xx_HAL_Driver/Src/stm32f1xx_ll_sdmmc.c ****   errorstate = SDMMC_GetCmdResp1(SDIOx, SDMMC_CMD_SEND_STATUS, SDIO_CMDTIMEOUT);
1049:Drivers/STM32F1xx_HAL_Driver/Src/stm32f1xx_ll_sdmmc.c **** 
1050:Drivers/STM32F1xx_HAL_Driver/Src/stm32f1xx_ll_sdmmc.c ****   return errorstate;
1051:Drivers/STM32F1xx_HAL_Driver/Src/stm32f1xx_ll_sdmmc.c **** }
1052:Drivers/STM32F1xx_HAL_Driver/Src/stm32f1xx_ll_sdmmc.c **** 
1053:Drivers/STM32F1xx_HAL_Driver/Src/stm32f1xx_ll_sdmmc.c **** /**
1054:Drivers/STM32F1xx_HAL_Driver/Src/stm32f1xx_ll_sdmmc.c ****   * @brief  Send the Status register command and check the response.
1055:Drivers/STM32F1xx_HAL_Driver/Src/stm32f1xx_ll_sdmmc.c ****   * @param  SDIOx: Pointer to SDIO register base 
1056:Drivers/STM32F1xx_HAL_Driver/Src/stm32f1xx_ll_sdmmc.c ****   * @retval HAL status
1057:Drivers/STM32F1xx_HAL_Driver/Src/stm32f1xx_ll_sdmmc.c ****   */
1058:Drivers/STM32F1xx_HAL_Driver/Src/stm32f1xx_ll_sdmmc.c **** uint32_t SDMMC_CmdStatusRegister(SDIO_TypeDef *SDIOx)
1059:Drivers/STM32F1xx_HAL_Driver/Src/stm32f1xx_ll_sdmmc.c **** {
1060:Drivers/STM32F1xx_HAL_Driver/Src/stm32f1xx_ll_sdmmc.c ****   SDIO_CmdInitTypeDef  sdmmc_cmdinit;
ARM GAS  /tmp/cc3JF8Cu.s 			page 20


1061:Drivers/STM32F1xx_HAL_Driver/Src/stm32f1xx_ll_sdmmc.c ****   uint32_t errorstate;
1062:Drivers/STM32F1xx_HAL_Driver/Src/stm32f1xx_ll_sdmmc.c ****   
1063:Drivers/STM32F1xx_HAL_Driver/Src/stm32f1xx_ll_sdmmc.c ****   sdmmc_cmdinit.Argument         = 0U;
1064:Drivers/STM32F1xx_HAL_Driver/Src/stm32f1xx_ll_sdmmc.c ****   sdmmc_cmdinit.CmdIndex         = SDMMC_CMD_SD_APP_STATUS;
1065:Drivers/STM32F1xx_HAL_Driver/Src/stm32f1xx_ll_sdmmc.c ****   sdmmc_cmdinit.Response         = SDIO_RESPONSE_SHORT;
1066:Drivers/STM32F1xx_HAL_Driver/Src/stm32f1xx_ll_sdmmc.c ****   sdmmc_cmdinit.WaitForInterrupt = SDIO_WAIT_NO;
1067:Drivers/STM32F1xx_HAL_Driver/Src/stm32f1xx_ll_sdmmc.c ****   sdmmc_cmdinit.CPSM             = SDIO_CPSM_ENABLE;
1068:Drivers/STM32F1xx_HAL_Driver/Src/stm32f1xx_ll_sdmmc.c ****   (void)SDIO_SendCommand(SDIOx, &sdmmc_cmdinit);
1069:Drivers/STM32F1xx_HAL_Driver/Src/stm32f1xx_ll_sdmmc.c ****   
1070:Drivers/STM32F1xx_HAL_Driver/Src/stm32f1xx_ll_sdmmc.c ****   /* Check for error conditions */
1071:Drivers/STM32F1xx_HAL_Driver/Src/stm32f1xx_ll_sdmmc.c ****   errorstate = SDMMC_GetCmdResp1(SDIOx, SDMMC_CMD_SD_APP_STATUS, SDIO_CMDTIMEOUT);
1072:Drivers/STM32F1xx_HAL_Driver/Src/stm32f1xx_ll_sdmmc.c **** 
1073:Drivers/STM32F1xx_HAL_Driver/Src/stm32f1xx_ll_sdmmc.c ****   return errorstate;
1074:Drivers/STM32F1xx_HAL_Driver/Src/stm32f1xx_ll_sdmmc.c **** }
1075:Drivers/STM32F1xx_HAL_Driver/Src/stm32f1xx_ll_sdmmc.c **** 
1076:Drivers/STM32F1xx_HAL_Driver/Src/stm32f1xx_ll_sdmmc.c **** /**
1077:Drivers/STM32F1xx_HAL_Driver/Src/stm32f1xx_ll_sdmmc.c ****   * @brief  Sends host capacity support information and activates the card's 
1078:Drivers/STM32F1xx_HAL_Driver/Src/stm32f1xx_ll_sdmmc.c ****   *         initialization process. Send SDMMC_CMD_SEND_OP_COND command
1079:Drivers/STM32F1xx_HAL_Driver/Src/stm32f1xx_ll_sdmmc.c ****   * @param  SDIOx: Pointer to SDIO register base 
1080:Drivers/STM32F1xx_HAL_Driver/Src/stm32f1xx_ll_sdmmc.c ****   * @parame Argument: Argument used for the command
1081:Drivers/STM32F1xx_HAL_Driver/Src/stm32f1xx_ll_sdmmc.c ****   * @retval HAL status
1082:Drivers/STM32F1xx_HAL_Driver/Src/stm32f1xx_ll_sdmmc.c ****   */
1083:Drivers/STM32F1xx_HAL_Driver/Src/stm32f1xx_ll_sdmmc.c **** uint32_t SDMMC_CmdOpCondition(SDIO_TypeDef *SDIOx, uint32_t Argument)
1084:Drivers/STM32F1xx_HAL_Driver/Src/stm32f1xx_ll_sdmmc.c **** {
1085:Drivers/STM32F1xx_HAL_Driver/Src/stm32f1xx_ll_sdmmc.c ****   SDIO_CmdInitTypeDef  sdmmc_cmdinit;
1086:Drivers/STM32F1xx_HAL_Driver/Src/stm32f1xx_ll_sdmmc.c ****   uint32_t errorstate;
1087:Drivers/STM32F1xx_HAL_Driver/Src/stm32f1xx_ll_sdmmc.c ****   
1088:Drivers/STM32F1xx_HAL_Driver/Src/stm32f1xx_ll_sdmmc.c ****   sdmmc_cmdinit.Argument         = Argument;
1089:Drivers/STM32F1xx_HAL_Driver/Src/stm32f1xx_ll_sdmmc.c ****   sdmmc_cmdinit.CmdIndex         = SDMMC_CMD_SEND_OP_COND;
1090:Drivers/STM32F1xx_HAL_Driver/Src/stm32f1xx_ll_sdmmc.c ****   sdmmc_cmdinit.Response         = SDIO_RESPONSE_SHORT;
1091:Drivers/STM32F1xx_HAL_Driver/Src/stm32f1xx_ll_sdmmc.c ****   sdmmc_cmdinit.WaitForInterrupt = SDIO_WAIT_NO;
1092:Drivers/STM32F1xx_HAL_Driver/Src/stm32f1xx_ll_sdmmc.c ****   sdmmc_cmdinit.CPSM             = SDIO_CPSM_ENABLE;
1093:Drivers/STM32F1xx_HAL_Driver/Src/stm32f1xx_ll_sdmmc.c ****   (void)SDIO_SendCommand(SDIOx, &sdmmc_cmdinit);
1094:Drivers/STM32F1xx_HAL_Driver/Src/stm32f1xx_ll_sdmmc.c ****   
1095:Drivers/STM32F1xx_HAL_Driver/Src/stm32f1xx_ll_sdmmc.c ****   /* Check for error conditions */
1096:Drivers/STM32F1xx_HAL_Driver/Src/stm32f1xx_ll_sdmmc.c ****   errorstate = SDMMC_GetCmdResp3(SDIOx);
1097:Drivers/STM32F1xx_HAL_Driver/Src/stm32f1xx_ll_sdmmc.c **** 
1098:Drivers/STM32F1xx_HAL_Driver/Src/stm32f1xx_ll_sdmmc.c ****   return errorstate;
1099:Drivers/STM32F1xx_HAL_Driver/Src/stm32f1xx_ll_sdmmc.c **** }
1100:Drivers/STM32F1xx_HAL_Driver/Src/stm32f1xx_ll_sdmmc.c **** 
1101:Drivers/STM32F1xx_HAL_Driver/Src/stm32f1xx_ll_sdmmc.c **** /**
1102:Drivers/STM32F1xx_HAL_Driver/Src/stm32f1xx_ll_sdmmc.c ****   * @brief  Checks switchable function and switch card function. SDMMC_CMD_HS_SWITCH comand
1103:Drivers/STM32F1xx_HAL_Driver/Src/stm32f1xx_ll_sdmmc.c ****   * @param  SDIOx: Pointer to SDIO register base 
1104:Drivers/STM32F1xx_HAL_Driver/Src/stm32f1xx_ll_sdmmc.c ****   * @parame Argument: Argument used for the command
1105:Drivers/STM32F1xx_HAL_Driver/Src/stm32f1xx_ll_sdmmc.c ****   * @retval HAL status
1106:Drivers/STM32F1xx_HAL_Driver/Src/stm32f1xx_ll_sdmmc.c ****   */
1107:Drivers/STM32F1xx_HAL_Driver/Src/stm32f1xx_ll_sdmmc.c **** uint32_t SDMMC_CmdSwitch(SDIO_TypeDef *SDIOx, uint32_t Argument)
1108:Drivers/STM32F1xx_HAL_Driver/Src/stm32f1xx_ll_sdmmc.c **** {
1109:Drivers/STM32F1xx_HAL_Driver/Src/stm32f1xx_ll_sdmmc.c ****   SDIO_CmdInitTypeDef  sdmmc_cmdinit;
1110:Drivers/STM32F1xx_HAL_Driver/Src/stm32f1xx_ll_sdmmc.c ****   uint32_t errorstate;
1111:Drivers/STM32F1xx_HAL_Driver/Src/stm32f1xx_ll_sdmmc.c ****   
1112:Drivers/STM32F1xx_HAL_Driver/Src/stm32f1xx_ll_sdmmc.c ****   /* Send CMD6 to activate SDR50 Mode and Power Limit 1.44W */
1113:Drivers/STM32F1xx_HAL_Driver/Src/stm32f1xx_ll_sdmmc.c ****   /* CMD Response: R1 */
1114:Drivers/STM32F1xx_HAL_Driver/Src/stm32f1xx_ll_sdmmc.c ****   sdmmc_cmdinit.Argument         = Argument; /* SDMMC_SDR25_SWITCH_PATTERN */
1115:Drivers/STM32F1xx_HAL_Driver/Src/stm32f1xx_ll_sdmmc.c ****   sdmmc_cmdinit.CmdIndex         = SDMMC_CMD_HS_SWITCH;
1116:Drivers/STM32F1xx_HAL_Driver/Src/stm32f1xx_ll_sdmmc.c ****   sdmmc_cmdinit.Response         = SDIO_RESPONSE_SHORT;
1117:Drivers/STM32F1xx_HAL_Driver/Src/stm32f1xx_ll_sdmmc.c ****   sdmmc_cmdinit.WaitForInterrupt = SDIO_WAIT_NO;
ARM GAS  /tmp/cc3JF8Cu.s 			page 21


1118:Drivers/STM32F1xx_HAL_Driver/Src/stm32f1xx_ll_sdmmc.c ****   sdmmc_cmdinit.CPSM             = SDIO_CPSM_ENABLE;
1119:Drivers/STM32F1xx_HAL_Driver/Src/stm32f1xx_ll_sdmmc.c ****   (void)SDIO_SendCommand(SDIOx, &sdmmc_cmdinit);
1120:Drivers/STM32F1xx_HAL_Driver/Src/stm32f1xx_ll_sdmmc.c ****   
1121:Drivers/STM32F1xx_HAL_Driver/Src/stm32f1xx_ll_sdmmc.c ****   /* Check for error conditions */
1122:Drivers/STM32F1xx_HAL_Driver/Src/stm32f1xx_ll_sdmmc.c ****   errorstate = SDMMC_GetCmdResp1(SDIOx, SDMMC_CMD_HS_SWITCH, SDIO_CMDTIMEOUT);
1123:Drivers/STM32F1xx_HAL_Driver/Src/stm32f1xx_ll_sdmmc.c **** 
1124:Drivers/STM32F1xx_HAL_Driver/Src/stm32f1xx_ll_sdmmc.c ****   return errorstate;
1125:Drivers/STM32F1xx_HAL_Driver/Src/stm32f1xx_ll_sdmmc.c **** }
1126:Drivers/STM32F1xx_HAL_Driver/Src/stm32f1xx_ll_sdmmc.c **** 
1127:Drivers/STM32F1xx_HAL_Driver/Src/stm32f1xx_ll_sdmmc.c **** /**
1128:Drivers/STM32F1xx_HAL_Driver/Src/stm32f1xx_ll_sdmmc.c ****   * @}
1129:Drivers/STM32F1xx_HAL_Driver/Src/stm32f1xx_ll_sdmmc.c ****   */
1130:Drivers/STM32F1xx_HAL_Driver/Src/stm32f1xx_ll_sdmmc.c **** 
1131:Drivers/STM32F1xx_HAL_Driver/Src/stm32f1xx_ll_sdmmc.c **** /* Private function ----------------------------------------------------------*/  
1132:Drivers/STM32F1xx_HAL_Driver/Src/stm32f1xx_ll_sdmmc.c **** /** @addtogroup SD_Private_Functions
1133:Drivers/STM32F1xx_HAL_Driver/Src/stm32f1xx_ll_sdmmc.c ****   * @{
1134:Drivers/STM32F1xx_HAL_Driver/Src/stm32f1xx_ll_sdmmc.c ****   */
1135:Drivers/STM32F1xx_HAL_Driver/Src/stm32f1xx_ll_sdmmc.c ****     
1136:Drivers/STM32F1xx_HAL_Driver/Src/stm32f1xx_ll_sdmmc.c **** /**
1137:Drivers/STM32F1xx_HAL_Driver/Src/stm32f1xx_ll_sdmmc.c ****   * @brief  Checks for error conditions for CMD0.
1138:Drivers/STM32F1xx_HAL_Driver/Src/stm32f1xx_ll_sdmmc.c ****   * @param  hsd: SD handle
1139:Drivers/STM32F1xx_HAL_Driver/Src/stm32f1xx_ll_sdmmc.c ****   * @retval SD Card error state
1140:Drivers/STM32F1xx_HAL_Driver/Src/stm32f1xx_ll_sdmmc.c ****   */
1141:Drivers/STM32F1xx_HAL_Driver/Src/stm32f1xx_ll_sdmmc.c **** static uint32_t SDMMC_GetCmdError(SDIO_TypeDef *SDIOx)
1142:Drivers/STM32F1xx_HAL_Driver/Src/stm32f1xx_ll_sdmmc.c **** {
  25              		.loc 1 1142 0
  26              		.cfi_startproc
  27              		@ args = 0, pretend = 0, frame = 0
  28              		@ frame_needed = 0, uses_anonymous_args = 0
  29              		@ link register save eliminated.
  30              	.LVL0:
1143:Drivers/STM32F1xx_HAL_Driver/Src/stm32f1xx_ll_sdmmc.c ****   /* 8 is the number of required instructions cycles for the below loop statement.
1144:Drivers/STM32F1xx_HAL_Driver/Src/stm32f1xx_ll_sdmmc.c ****   The SDIO_CMDTIMEOUT is expressed in ms */
1145:Drivers/STM32F1xx_HAL_Driver/Src/stm32f1xx_ll_sdmmc.c ****   register uint32_t count = SDIO_CMDTIMEOUT * (SystemCoreClock / 8U /1000U);
  31              		.loc 1 1145 0
  32 0000 0B4B     		ldr	r3, .L5
  33 0002 1B68     		ldr	r3, [r3]
  34 0004 0B4A     		ldr	r2, .L5+4
  35 0006 A2FB0323 		umull	r2, r3, r2, r3
  36 000a 5A0A     		lsrs	r2, r3, #9
  37 000c 41F28833 		movw	r3, #5000
  38 0010 03FB02F3 		mul	r3, r3, r2
  39              	.LVL1:
  40              	.L3:
1146:Drivers/STM32F1xx_HAL_Driver/Src/stm32f1xx_ll_sdmmc.c ****   
1147:Drivers/STM32F1xx_HAL_Driver/Src/stm32f1xx_ll_sdmmc.c ****   do
1148:Drivers/STM32F1xx_HAL_Driver/Src/stm32f1xx_ll_sdmmc.c ****   {
1149:Drivers/STM32F1xx_HAL_Driver/Src/stm32f1xx_ll_sdmmc.c ****     if (count-- == 0U)
  41              		.loc 1 1149 0
  42 0014 5A1E     		subs	r2, r3, #1
  43              	.LVL2:
  44 0016 43B1     		cbz	r3, .L4
1150:Drivers/STM32F1xx_HAL_Driver/Src/stm32f1xx_ll_sdmmc.c ****     {
1151:Drivers/STM32F1xx_HAL_Driver/Src/stm32f1xx_ll_sdmmc.c ****       return SDMMC_ERROR_TIMEOUT;
1152:Drivers/STM32F1xx_HAL_Driver/Src/stm32f1xx_ll_sdmmc.c ****     }
1153:Drivers/STM32F1xx_HAL_Driver/Src/stm32f1xx_ll_sdmmc.c ****     
1154:Drivers/STM32F1xx_HAL_Driver/Src/stm32f1xx_ll_sdmmc.c ****   }while(!__SDIO_GET_FLAG(SDIOx, SDIO_FLAG_CMDSENT));
ARM GAS  /tmp/cc3JF8Cu.s 			page 22


  45              		.loc 1 1154 0
  46 0018 416B     		ldr	r1, [r0, #52]
1149:Drivers/STM32F1xx_HAL_Driver/Src/stm32f1xx_ll_sdmmc.c ****     {
  47              		.loc 1 1149 0
  48 001a 1346     		mov	r3, r2
  49              		.loc 1 1154 0
  50 001c 11F0800F 		tst	r1, #128
  51 0020 F8D0     		beq	.L3
1155:Drivers/STM32F1xx_HAL_Driver/Src/stm32f1xx_ll_sdmmc.c ****   
1156:Drivers/STM32F1xx_HAL_Driver/Src/stm32f1xx_ll_sdmmc.c ****   /* Clear all the static flags */
1157:Drivers/STM32F1xx_HAL_Driver/Src/stm32f1xx_ll_sdmmc.c ****   __SDIO_CLEAR_FLAG(SDIOx, SDIO_STATIC_CMD_FLAGS);
  52              		.loc 1 1157 0
  53 0022 C523     		movs	r3, #197
  54 0024 8363     		str	r3, [r0, #56]
1158:Drivers/STM32F1xx_HAL_Driver/Src/stm32f1xx_ll_sdmmc.c ****   
1159:Drivers/STM32F1xx_HAL_Driver/Src/stm32f1xx_ll_sdmmc.c ****   return SDMMC_ERROR_NONE;
  55              		.loc 1 1159 0
  56 0026 0020     		movs	r0, #0
  57              	.LVL3:
  58 0028 7047     		bx	lr
  59              	.LVL4:
  60              	.L4:
1151:Drivers/STM32F1xx_HAL_Driver/Src/stm32f1xx_ll_sdmmc.c ****     }
  61              		.loc 1 1151 0
  62 002a 4FF00040 		mov	r0, #-2147483648
  63              	.LVL5:
1160:Drivers/STM32F1xx_HAL_Driver/Src/stm32f1xx_ll_sdmmc.c **** }
  64              		.loc 1 1160 0
  65 002e 7047     		bx	lr
  66              	.L6:
  67              		.align	2
  68              	.L5:
  69 0030 00000000 		.word	SystemCoreClock
  70 0034 D34D6210 		.word	274877907
  71              		.cfi_endproc
  72              	.LFE103:
  74              		.section	.text.SDMMC_GetCmdResp2,"ax",%progbits
  75              		.align	1
  76              		.syntax unified
  77              		.thumb
  78              		.thumb_func
  79              		.fpu softvfp
  81              	SDMMC_GetCmdResp2:
  82              	.LFB105:
1161:Drivers/STM32F1xx_HAL_Driver/Src/stm32f1xx_ll_sdmmc.c **** 
1162:Drivers/STM32F1xx_HAL_Driver/Src/stm32f1xx_ll_sdmmc.c **** /**
1163:Drivers/STM32F1xx_HAL_Driver/Src/stm32f1xx_ll_sdmmc.c ****   * @brief  Checks for error conditions for R1 response.
1164:Drivers/STM32F1xx_HAL_Driver/Src/stm32f1xx_ll_sdmmc.c ****   * @param  hsd: SD handle
1165:Drivers/STM32F1xx_HAL_Driver/Src/stm32f1xx_ll_sdmmc.c ****   * @param  SD_CMD: The sent command index  
1166:Drivers/STM32F1xx_HAL_Driver/Src/stm32f1xx_ll_sdmmc.c ****   * @retval SD Card error state
1167:Drivers/STM32F1xx_HAL_Driver/Src/stm32f1xx_ll_sdmmc.c ****   */
1168:Drivers/STM32F1xx_HAL_Driver/Src/stm32f1xx_ll_sdmmc.c **** static uint32_t SDMMC_GetCmdResp1(SDIO_TypeDef *SDIOx, uint8_t SD_CMD, uint32_t Timeout)
1169:Drivers/STM32F1xx_HAL_Driver/Src/stm32f1xx_ll_sdmmc.c **** {
1170:Drivers/STM32F1xx_HAL_Driver/Src/stm32f1xx_ll_sdmmc.c ****   uint32_t response_r1;
1171:Drivers/STM32F1xx_HAL_Driver/Src/stm32f1xx_ll_sdmmc.c ****   uint32_t sta_reg;
1172:Drivers/STM32F1xx_HAL_Driver/Src/stm32f1xx_ll_sdmmc.c ****   
1173:Drivers/STM32F1xx_HAL_Driver/Src/stm32f1xx_ll_sdmmc.c ****   /* 8 is the number of required instructions cycles for the below loop statement.
ARM GAS  /tmp/cc3JF8Cu.s 			page 23


1174:Drivers/STM32F1xx_HAL_Driver/Src/stm32f1xx_ll_sdmmc.c ****   The Timeout is expressed in ms */
1175:Drivers/STM32F1xx_HAL_Driver/Src/stm32f1xx_ll_sdmmc.c ****   register uint32_t count = Timeout * (SystemCoreClock / 8U /1000U);
1176:Drivers/STM32F1xx_HAL_Driver/Src/stm32f1xx_ll_sdmmc.c ****   
1177:Drivers/STM32F1xx_HAL_Driver/Src/stm32f1xx_ll_sdmmc.c ****   do
1178:Drivers/STM32F1xx_HAL_Driver/Src/stm32f1xx_ll_sdmmc.c ****   {
1179:Drivers/STM32F1xx_HAL_Driver/Src/stm32f1xx_ll_sdmmc.c ****     if (count-- == 0U)
1180:Drivers/STM32F1xx_HAL_Driver/Src/stm32f1xx_ll_sdmmc.c ****     {
1181:Drivers/STM32F1xx_HAL_Driver/Src/stm32f1xx_ll_sdmmc.c ****       return SDMMC_ERROR_TIMEOUT;
1182:Drivers/STM32F1xx_HAL_Driver/Src/stm32f1xx_ll_sdmmc.c ****     }
1183:Drivers/STM32F1xx_HAL_Driver/Src/stm32f1xx_ll_sdmmc.c ****     sta_reg = SDIOx->STA;
1184:Drivers/STM32F1xx_HAL_Driver/Src/stm32f1xx_ll_sdmmc.c ****   }while(((sta_reg & (SDIO_FLAG_CCRCFAIL | SDIO_FLAG_CMDREND | SDIO_FLAG_CTIMEOUT)) == 0U) ||
1185:Drivers/STM32F1xx_HAL_Driver/Src/stm32f1xx_ll_sdmmc.c ****          ((sta_reg & SDIO_FLAG_CMDACT) != 0U ));
1186:Drivers/STM32F1xx_HAL_Driver/Src/stm32f1xx_ll_sdmmc.c ****     
1187:Drivers/STM32F1xx_HAL_Driver/Src/stm32f1xx_ll_sdmmc.c ****   if(__SDIO_GET_FLAG(SDIOx, SDIO_FLAG_CTIMEOUT))
1188:Drivers/STM32F1xx_HAL_Driver/Src/stm32f1xx_ll_sdmmc.c ****   {
1189:Drivers/STM32F1xx_HAL_Driver/Src/stm32f1xx_ll_sdmmc.c ****     __SDIO_CLEAR_FLAG(SDIOx, SDIO_FLAG_CTIMEOUT);
1190:Drivers/STM32F1xx_HAL_Driver/Src/stm32f1xx_ll_sdmmc.c ****     
1191:Drivers/STM32F1xx_HAL_Driver/Src/stm32f1xx_ll_sdmmc.c ****     return SDMMC_ERROR_CMD_RSP_TIMEOUT;
1192:Drivers/STM32F1xx_HAL_Driver/Src/stm32f1xx_ll_sdmmc.c ****   }
1193:Drivers/STM32F1xx_HAL_Driver/Src/stm32f1xx_ll_sdmmc.c ****   else if(__SDIO_GET_FLAG(SDIOx, SDIO_FLAG_CCRCFAIL))
1194:Drivers/STM32F1xx_HAL_Driver/Src/stm32f1xx_ll_sdmmc.c ****   {
1195:Drivers/STM32F1xx_HAL_Driver/Src/stm32f1xx_ll_sdmmc.c ****     __SDIO_CLEAR_FLAG(SDIOx, SDIO_FLAG_CCRCFAIL);
1196:Drivers/STM32F1xx_HAL_Driver/Src/stm32f1xx_ll_sdmmc.c ****     
1197:Drivers/STM32F1xx_HAL_Driver/Src/stm32f1xx_ll_sdmmc.c ****     return SDMMC_ERROR_CMD_CRC_FAIL;
1198:Drivers/STM32F1xx_HAL_Driver/Src/stm32f1xx_ll_sdmmc.c ****   }
1199:Drivers/STM32F1xx_HAL_Driver/Src/stm32f1xx_ll_sdmmc.c ****   else
1200:Drivers/STM32F1xx_HAL_Driver/Src/stm32f1xx_ll_sdmmc.c ****   {
1201:Drivers/STM32F1xx_HAL_Driver/Src/stm32f1xx_ll_sdmmc.c ****     /* Nothing to do */
1202:Drivers/STM32F1xx_HAL_Driver/Src/stm32f1xx_ll_sdmmc.c ****   }
1203:Drivers/STM32F1xx_HAL_Driver/Src/stm32f1xx_ll_sdmmc.c ****   
1204:Drivers/STM32F1xx_HAL_Driver/Src/stm32f1xx_ll_sdmmc.c ****   /* Clear all the static flags */
1205:Drivers/STM32F1xx_HAL_Driver/Src/stm32f1xx_ll_sdmmc.c ****   __SDIO_CLEAR_FLAG(SDIOx, SDIO_STATIC_CMD_FLAGS);
1206:Drivers/STM32F1xx_HAL_Driver/Src/stm32f1xx_ll_sdmmc.c ****   
1207:Drivers/STM32F1xx_HAL_Driver/Src/stm32f1xx_ll_sdmmc.c ****   /* Check response received is of desired command */
1208:Drivers/STM32F1xx_HAL_Driver/Src/stm32f1xx_ll_sdmmc.c ****   if(SDIO_GetCommandResponse(SDIOx) != SD_CMD)
1209:Drivers/STM32F1xx_HAL_Driver/Src/stm32f1xx_ll_sdmmc.c ****   {
1210:Drivers/STM32F1xx_HAL_Driver/Src/stm32f1xx_ll_sdmmc.c ****     return SDMMC_ERROR_CMD_CRC_FAIL;
1211:Drivers/STM32F1xx_HAL_Driver/Src/stm32f1xx_ll_sdmmc.c ****   }
1212:Drivers/STM32F1xx_HAL_Driver/Src/stm32f1xx_ll_sdmmc.c ****   
1213:Drivers/STM32F1xx_HAL_Driver/Src/stm32f1xx_ll_sdmmc.c ****   /* We have received response, retrieve it for analysis  */
1214:Drivers/STM32F1xx_HAL_Driver/Src/stm32f1xx_ll_sdmmc.c ****   response_r1 = SDIO_GetResponse(SDIOx, SDIO_RESP1);
1215:Drivers/STM32F1xx_HAL_Driver/Src/stm32f1xx_ll_sdmmc.c ****   
1216:Drivers/STM32F1xx_HAL_Driver/Src/stm32f1xx_ll_sdmmc.c ****   if((response_r1 & SDMMC_OCR_ERRORBITS) == SDMMC_ALLZERO)
1217:Drivers/STM32F1xx_HAL_Driver/Src/stm32f1xx_ll_sdmmc.c ****   {
1218:Drivers/STM32F1xx_HAL_Driver/Src/stm32f1xx_ll_sdmmc.c ****     return SDMMC_ERROR_NONE;
1219:Drivers/STM32F1xx_HAL_Driver/Src/stm32f1xx_ll_sdmmc.c ****   }
1220:Drivers/STM32F1xx_HAL_Driver/Src/stm32f1xx_ll_sdmmc.c ****   else if((response_r1 & SDMMC_OCR_ADDR_OUT_OF_RANGE) == SDMMC_OCR_ADDR_OUT_OF_RANGE)
1221:Drivers/STM32F1xx_HAL_Driver/Src/stm32f1xx_ll_sdmmc.c ****   {
1222:Drivers/STM32F1xx_HAL_Driver/Src/stm32f1xx_ll_sdmmc.c ****     return SDMMC_ERROR_ADDR_OUT_OF_RANGE;
1223:Drivers/STM32F1xx_HAL_Driver/Src/stm32f1xx_ll_sdmmc.c ****   }
1224:Drivers/STM32F1xx_HAL_Driver/Src/stm32f1xx_ll_sdmmc.c ****   else if((response_r1 & SDMMC_OCR_ADDR_MISALIGNED) == SDMMC_OCR_ADDR_MISALIGNED)
1225:Drivers/STM32F1xx_HAL_Driver/Src/stm32f1xx_ll_sdmmc.c ****   {
1226:Drivers/STM32F1xx_HAL_Driver/Src/stm32f1xx_ll_sdmmc.c ****     return SDMMC_ERROR_ADDR_MISALIGNED;
1227:Drivers/STM32F1xx_HAL_Driver/Src/stm32f1xx_ll_sdmmc.c ****   }
1228:Drivers/STM32F1xx_HAL_Driver/Src/stm32f1xx_ll_sdmmc.c ****   else if((response_r1 & SDMMC_OCR_BLOCK_LEN_ERR) == SDMMC_OCR_BLOCK_LEN_ERR)
1229:Drivers/STM32F1xx_HAL_Driver/Src/stm32f1xx_ll_sdmmc.c ****   {
1230:Drivers/STM32F1xx_HAL_Driver/Src/stm32f1xx_ll_sdmmc.c ****     return SDMMC_ERROR_BLOCK_LEN_ERR;
ARM GAS  /tmp/cc3JF8Cu.s 			page 24


1231:Drivers/STM32F1xx_HAL_Driver/Src/stm32f1xx_ll_sdmmc.c ****   }
1232:Drivers/STM32F1xx_HAL_Driver/Src/stm32f1xx_ll_sdmmc.c ****   else if((response_r1 & SDMMC_OCR_ERASE_SEQ_ERR) == SDMMC_OCR_ERASE_SEQ_ERR)
1233:Drivers/STM32F1xx_HAL_Driver/Src/stm32f1xx_ll_sdmmc.c ****   {
1234:Drivers/STM32F1xx_HAL_Driver/Src/stm32f1xx_ll_sdmmc.c ****     return SDMMC_ERROR_ERASE_SEQ_ERR;
1235:Drivers/STM32F1xx_HAL_Driver/Src/stm32f1xx_ll_sdmmc.c ****   }
1236:Drivers/STM32F1xx_HAL_Driver/Src/stm32f1xx_ll_sdmmc.c ****   else if((response_r1 & SDMMC_OCR_BAD_ERASE_PARAM) == SDMMC_OCR_BAD_ERASE_PARAM)
1237:Drivers/STM32F1xx_HAL_Driver/Src/stm32f1xx_ll_sdmmc.c ****   {
1238:Drivers/STM32F1xx_HAL_Driver/Src/stm32f1xx_ll_sdmmc.c ****     return SDMMC_ERROR_BAD_ERASE_PARAM;
1239:Drivers/STM32F1xx_HAL_Driver/Src/stm32f1xx_ll_sdmmc.c ****   }
1240:Drivers/STM32F1xx_HAL_Driver/Src/stm32f1xx_ll_sdmmc.c ****   else if((response_r1 & SDMMC_OCR_WRITE_PROT_VIOLATION) == SDMMC_OCR_WRITE_PROT_VIOLATION)
1241:Drivers/STM32F1xx_HAL_Driver/Src/stm32f1xx_ll_sdmmc.c ****   {
1242:Drivers/STM32F1xx_HAL_Driver/Src/stm32f1xx_ll_sdmmc.c ****     return SDMMC_ERROR_WRITE_PROT_VIOLATION;
1243:Drivers/STM32F1xx_HAL_Driver/Src/stm32f1xx_ll_sdmmc.c ****   }
1244:Drivers/STM32F1xx_HAL_Driver/Src/stm32f1xx_ll_sdmmc.c ****   else if((response_r1 & SDMMC_OCR_LOCK_UNLOCK_FAILED) == SDMMC_OCR_LOCK_UNLOCK_FAILED)
1245:Drivers/STM32F1xx_HAL_Driver/Src/stm32f1xx_ll_sdmmc.c ****   {
1246:Drivers/STM32F1xx_HAL_Driver/Src/stm32f1xx_ll_sdmmc.c ****     return SDMMC_ERROR_LOCK_UNLOCK_FAILED;
1247:Drivers/STM32F1xx_HAL_Driver/Src/stm32f1xx_ll_sdmmc.c ****   }
1248:Drivers/STM32F1xx_HAL_Driver/Src/stm32f1xx_ll_sdmmc.c ****   else if((response_r1 & SDMMC_OCR_COM_CRC_FAILED) == SDMMC_OCR_COM_CRC_FAILED)
1249:Drivers/STM32F1xx_HAL_Driver/Src/stm32f1xx_ll_sdmmc.c ****   {
1250:Drivers/STM32F1xx_HAL_Driver/Src/stm32f1xx_ll_sdmmc.c ****     return SDMMC_ERROR_COM_CRC_FAILED;
1251:Drivers/STM32F1xx_HAL_Driver/Src/stm32f1xx_ll_sdmmc.c ****   }
1252:Drivers/STM32F1xx_HAL_Driver/Src/stm32f1xx_ll_sdmmc.c ****   else if((response_r1 & SDMMC_OCR_ILLEGAL_CMD) == SDMMC_OCR_ILLEGAL_CMD)
1253:Drivers/STM32F1xx_HAL_Driver/Src/stm32f1xx_ll_sdmmc.c ****   {
1254:Drivers/STM32F1xx_HAL_Driver/Src/stm32f1xx_ll_sdmmc.c ****     return SDMMC_ERROR_ILLEGAL_CMD;
1255:Drivers/STM32F1xx_HAL_Driver/Src/stm32f1xx_ll_sdmmc.c ****   }
1256:Drivers/STM32F1xx_HAL_Driver/Src/stm32f1xx_ll_sdmmc.c ****   else if((response_r1 & SDMMC_OCR_CARD_ECC_FAILED) == SDMMC_OCR_CARD_ECC_FAILED)
1257:Drivers/STM32F1xx_HAL_Driver/Src/stm32f1xx_ll_sdmmc.c ****   {
1258:Drivers/STM32F1xx_HAL_Driver/Src/stm32f1xx_ll_sdmmc.c ****     return SDMMC_ERROR_CARD_ECC_FAILED;
1259:Drivers/STM32F1xx_HAL_Driver/Src/stm32f1xx_ll_sdmmc.c ****   }
1260:Drivers/STM32F1xx_HAL_Driver/Src/stm32f1xx_ll_sdmmc.c ****   else if((response_r1 & SDMMC_OCR_CC_ERROR) == SDMMC_OCR_CC_ERROR)
1261:Drivers/STM32F1xx_HAL_Driver/Src/stm32f1xx_ll_sdmmc.c ****   {
1262:Drivers/STM32F1xx_HAL_Driver/Src/stm32f1xx_ll_sdmmc.c ****     return SDMMC_ERROR_CC_ERR;
1263:Drivers/STM32F1xx_HAL_Driver/Src/stm32f1xx_ll_sdmmc.c ****   }
1264:Drivers/STM32F1xx_HAL_Driver/Src/stm32f1xx_ll_sdmmc.c ****   else if((response_r1 & SDMMC_OCR_STREAM_READ_UNDERRUN) == SDMMC_OCR_STREAM_READ_UNDERRUN)
1265:Drivers/STM32F1xx_HAL_Driver/Src/stm32f1xx_ll_sdmmc.c ****   {
1266:Drivers/STM32F1xx_HAL_Driver/Src/stm32f1xx_ll_sdmmc.c ****     return SDMMC_ERROR_STREAM_READ_UNDERRUN;
1267:Drivers/STM32F1xx_HAL_Driver/Src/stm32f1xx_ll_sdmmc.c ****   }
1268:Drivers/STM32F1xx_HAL_Driver/Src/stm32f1xx_ll_sdmmc.c ****   else if((response_r1 & SDMMC_OCR_STREAM_WRITE_OVERRUN) == SDMMC_OCR_STREAM_WRITE_OVERRUN)
1269:Drivers/STM32F1xx_HAL_Driver/Src/stm32f1xx_ll_sdmmc.c ****   {
1270:Drivers/STM32F1xx_HAL_Driver/Src/stm32f1xx_ll_sdmmc.c ****     return SDMMC_ERROR_STREAM_WRITE_OVERRUN;
1271:Drivers/STM32F1xx_HAL_Driver/Src/stm32f1xx_ll_sdmmc.c ****   }
1272:Drivers/STM32F1xx_HAL_Driver/Src/stm32f1xx_ll_sdmmc.c ****   else if((response_r1 & SDMMC_OCR_CID_CSD_OVERWRITE) == SDMMC_OCR_CID_CSD_OVERWRITE)
1273:Drivers/STM32F1xx_HAL_Driver/Src/stm32f1xx_ll_sdmmc.c ****   {
1274:Drivers/STM32F1xx_HAL_Driver/Src/stm32f1xx_ll_sdmmc.c ****     return SDMMC_ERROR_CID_CSD_OVERWRITE;
1275:Drivers/STM32F1xx_HAL_Driver/Src/stm32f1xx_ll_sdmmc.c ****   }
1276:Drivers/STM32F1xx_HAL_Driver/Src/stm32f1xx_ll_sdmmc.c ****   else if((response_r1 & SDMMC_OCR_WP_ERASE_SKIP) == SDMMC_OCR_WP_ERASE_SKIP)
1277:Drivers/STM32F1xx_HAL_Driver/Src/stm32f1xx_ll_sdmmc.c ****   {
1278:Drivers/STM32F1xx_HAL_Driver/Src/stm32f1xx_ll_sdmmc.c ****     return SDMMC_ERROR_WP_ERASE_SKIP;
1279:Drivers/STM32F1xx_HAL_Driver/Src/stm32f1xx_ll_sdmmc.c ****   }
1280:Drivers/STM32F1xx_HAL_Driver/Src/stm32f1xx_ll_sdmmc.c ****   else if((response_r1 & SDMMC_OCR_CARD_ECC_DISABLED) == SDMMC_OCR_CARD_ECC_DISABLED)
1281:Drivers/STM32F1xx_HAL_Driver/Src/stm32f1xx_ll_sdmmc.c ****   {
1282:Drivers/STM32F1xx_HAL_Driver/Src/stm32f1xx_ll_sdmmc.c ****     return SDMMC_ERROR_CARD_ECC_DISABLED;
1283:Drivers/STM32F1xx_HAL_Driver/Src/stm32f1xx_ll_sdmmc.c ****   }
1284:Drivers/STM32F1xx_HAL_Driver/Src/stm32f1xx_ll_sdmmc.c ****   else if((response_r1 & SDMMC_OCR_ERASE_RESET) == SDMMC_OCR_ERASE_RESET)
1285:Drivers/STM32F1xx_HAL_Driver/Src/stm32f1xx_ll_sdmmc.c ****   {
1286:Drivers/STM32F1xx_HAL_Driver/Src/stm32f1xx_ll_sdmmc.c ****     return SDMMC_ERROR_ERASE_RESET;
1287:Drivers/STM32F1xx_HAL_Driver/Src/stm32f1xx_ll_sdmmc.c ****   }
ARM GAS  /tmp/cc3JF8Cu.s 			page 25


1288:Drivers/STM32F1xx_HAL_Driver/Src/stm32f1xx_ll_sdmmc.c ****   else if((response_r1 & SDMMC_OCR_AKE_SEQ_ERROR) == SDMMC_OCR_AKE_SEQ_ERROR)
1289:Drivers/STM32F1xx_HAL_Driver/Src/stm32f1xx_ll_sdmmc.c ****   {
1290:Drivers/STM32F1xx_HAL_Driver/Src/stm32f1xx_ll_sdmmc.c ****     return SDMMC_ERROR_AKE_SEQ_ERR;
1291:Drivers/STM32F1xx_HAL_Driver/Src/stm32f1xx_ll_sdmmc.c ****   }
1292:Drivers/STM32F1xx_HAL_Driver/Src/stm32f1xx_ll_sdmmc.c ****   else
1293:Drivers/STM32F1xx_HAL_Driver/Src/stm32f1xx_ll_sdmmc.c ****   {
1294:Drivers/STM32F1xx_HAL_Driver/Src/stm32f1xx_ll_sdmmc.c ****     return SDMMC_ERROR_GENERAL_UNKNOWN_ERR;
1295:Drivers/STM32F1xx_HAL_Driver/Src/stm32f1xx_ll_sdmmc.c ****   }
1296:Drivers/STM32F1xx_HAL_Driver/Src/stm32f1xx_ll_sdmmc.c **** }
1297:Drivers/STM32F1xx_HAL_Driver/Src/stm32f1xx_ll_sdmmc.c **** 
1298:Drivers/STM32F1xx_HAL_Driver/Src/stm32f1xx_ll_sdmmc.c **** /**
1299:Drivers/STM32F1xx_HAL_Driver/Src/stm32f1xx_ll_sdmmc.c ****   * @brief  Checks for error conditions for R2 (CID or CSD) response.
1300:Drivers/STM32F1xx_HAL_Driver/Src/stm32f1xx_ll_sdmmc.c ****   * @param  hsd: SD handle
1301:Drivers/STM32F1xx_HAL_Driver/Src/stm32f1xx_ll_sdmmc.c ****   * @retval SD Card error state
1302:Drivers/STM32F1xx_HAL_Driver/Src/stm32f1xx_ll_sdmmc.c ****   */
1303:Drivers/STM32F1xx_HAL_Driver/Src/stm32f1xx_ll_sdmmc.c **** static uint32_t SDMMC_GetCmdResp2(SDIO_TypeDef *SDIOx)
1304:Drivers/STM32F1xx_HAL_Driver/Src/stm32f1xx_ll_sdmmc.c **** {
  83              		.loc 1 1304 0
  84              		.cfi_startproc
  85              		@ args = 0, pretend = 0, frame = 0
  86              		@ frame_needed = 0, uses_anonymous_args = 0
  87              		@ link register save eliminated.
  88              	.LVL6:
1305:Drivers/STM32F1xx_HAL_Driver/Src/stm32f1xx_ll_sdmmc.c ****   uint32_t sta_reg;
1306:Drivers/STM32F1xx_HAL_Driver/Src/stm32f1xx_ll_sdmmc.c ****   /* 8 is the number of required instructions cycles for the below loop statement.
1307:Drivers/STM32F1xx_HAL_Driver/Src/stm32f1xx_ll_sdmmc.c ****   The SDIO_CMDTIMEOUT is expressed in ms */
1308:Drivers/STM32F1xx_HAL_Driver/Src/stm32f1xx_ll_sdmmc.c ****   register uint32_t count = SDIO_CMDTIMEOUT * (SystemCoreClock / 8U /1000U);
  89              		.loc 1 1308 0
  90 0000 154B     		ldr	r3, .L14
  91 0002 1B68     		ldr	r3, [r3]
  92 0004 154A     		ldr	r2, .L14+4
  93 0006 A2FB0323 		umull	r2, r3, r2, r3
  94 000a 5A0A     		lsrs	r2, r3, #9
  95 000c 41F28833 		movw	r3, #5000
  96 0010 03FB02F3 		mul	r3, r3, r2
  97              	.LVL7:
  98              	.L9:
1309:Drivers/STM32F1xx_HAL_Driver/Src/stm32f1xx_ll_sdmmc.c ****   
1310:Drivers/STM32F1xx_HAL_Driver/Src/stm32f1xx_ll_sdmmc.c ****   do
1311:Drivers/STM32F1xx_HAL_Driver/Src/stm32f1xx_ll_sdmmc.c ****   {
1312:Drivers/STM32F1xx_HAL_Driver/Src/stm32f1xx_ll_sdmmc.c ****     if (count-- == 0U)
  99              		.loc 1 1312 0
 100 0014 5A1E     		subs	r2, r3, #1
 101              	.LVL8:
 102 0016 DBB1     		cbz	r3, .L12
1313:Drivers/STM32F1xx_HAL_Driver/Src/stm32f1xx_ll_sdmmc.c ****     {
1314:Drivers/STM32F1xx_HAL_Driver/Src/stm32f1xx_ll_sdmmc.c ****       return SDMMC_ERROR_TIMEOUT;
1315:Drivers/STM32F1xx_HAL_Driver/Src/stm32f1xx_ll_sdmmc.c ****     }
1316:Drivers/STM32F1xx_HAL_Driver/Src/stm32f1xx_ll_sdmmc.c ****     sta_reg = SDIOx->STA;
 103              		.loc 1 1316 0
 104 0018 416B     		ldr	r1, [r0, #52]
 105              	.LVL9:
 106 001a 1346     		mov	r3, r2
1317:Drivers/STM32F1xx_HAL_Driver/Src/stm32f1xx_ll_sdmmc.c ****   }while(((sta_reg & (SDIO_FLAG_CCRCFAIL | SDIO_FLAG_CMDREND | SDIO_FLAG_CTIMEOUT)) == 0U) ||
1318:Drivers/STM32F1xx_HAL_Driver/Src/stm32f1xx_ll_sdmmc.c ****          ((sta_reg & SDIO_FLAG_CMDACT) != 0U ));
 107              		.loc 1 1318 0
 108 001c 11F0450F 		tst	r1, #69
ARM GAS  /tmp/cc3JF8Cu.s 			page 26


 109 0020 F8D0     		beq	.L9
1317:Drivers/STM32F1xx_HAL_Driver/Src/stm32f1xx_ll_sdmmc.c ****   }while(((sta_reg & (SDIO_FLAG_CCRCFAIL | SDIO_FLAG_CMDREND | SDIO_FLAG_CTIMEOUT)) == 0U) ||
 110              		.loc 1 1317 0 discriminator 1
 111 0022 11F4006F 		tst	r1, #2048
 112 0026 F5D1     		bne	.L9
1319:Drivers/STM32F1xx_HAL_Driver/Src/stm32f1xx_ll_sdmmc.c ****     
1320:Drivers/STM32F1xx_HAL_Driver/Src/stm32f1xx_ll_sdmmc.c ****   if (__SDIO_GET_FLAG(SDIOx, SDIO_FLAG_CTIMEOUT))
 113              		.loc 1 1320 0
 114 0028 436B     		ldr	r3, [r0, #52]
 115 002a 13F0040F 		tst	r3, #4
 116 002e 03D0     		beq	.L10
1321:Drivers/STM32F1xx_HAL_Driver/Src/stm32f1xx_ll_sdmmc.c ****   {
1322:Drivers/STM32F1xx_HAL_Driver/Src/stm32f1xx_ll_sdmmc.c ****     __SDIO_CLEAR_FLAG(SDIOx, SDIO_FLAG_CTIMEOUT);
 117              		.loc 1 1322 0
 118 0030 0423     		movs	r3, #4
 119 0032 8363     		str	r3, [r0, #56]
1323:Drivers/STM32F1xx_HAL_Driver/Src/stm32f1xx_ll_sdmmc.c ****     
1324:Drivers/STM32F1xx_HAL_Driver/Src/stm32f1xx_ll_sdmmc.c ****     return SDMMC_ERROR_CMD_RSP_TIMEOUT;
 120              		.loc 1 1324 0
 121 0034 1846     		mov	r0, r3
 122              	.LVL10:
 123 0036 7047     		bx	lr
 124              	.LVL11:
 125              	.L10:
1325:Drivers/STM32F1xx_HAL_Driver/Src/stm32f1xx_ll_sdmmc.c ****   }
1326:Drivers/STM32F1xx_HAL_Driver/Src/stm32f1xx_ll_sdmmc.c ****   else if (__SDIO_GET_FLAG(SDIOx, SDIO_FLAG_CCRCFAIL))
 126              		.loc 1 1326 0
 127 0038 436B     		ldr	r3, [r0, #52]
 128 003a 13F0010F 		tst	r3, #1
 129 003e 03D1     		bne	.L13
1327:Drivers/STM32F1xx_HAL_Driver/Src/stm32f1xx_ll_sdmmc.c ****   {
1328:Drivers/STM32F1xx_HAL_Driver/Src/stm32f1xx_ll_sdmmc.c ****     __SDIO_CLEAR_FLAG(SDIOx, SDIO_FLAG_CCRCFAIL);
1329:Drivers/STM32F1xx_HAL_Driver/Src/stm32f1xx_ll_sdmmc.c ****     
1330:Drivers/STM32F1xx_HAL_Driver/Src/stm32f1xx_ll_sdmmc.c ****     return SDMMC_ERROR_CMD_CRC_FAIL;
1331:Drivers/STM32F1xx_HAL_Driver/Src/stm32f1xx_ll_sdmmc.c ****   }
1332:Drivers/STM32F1xx_HAL_Driver/Src/stm32f1xx_ll_sdmmc.c ****   else
1333:Drivers/STM32F1xx_HAL_Driver/Src/stm32f1xx_ll_sdmmc.c ****   {
1334:Drivers/STM32F1xx_HAL_Driver/Src/stm32f1xx_ll_sdmmc.c ****     /* No error flag set */
1335:Drivers/STM32F1xx_HAL_Driver/Src/stm32f1xx_ll_sdmmc.c ****     /* Clear all the static flags */
1336:Drivers/STM32F1xx_HAL_Driver/Src/stm32f1xx_ll_sdmmc.c ****     __SDIO_CLEAR_FLAG(SDIOx, SDIO_STATIC_CMD_FLAGS);
 130              		.loc 1 1336 0
 131 0040 C523     		movs	r3, #197
 132 0042 8363     		str	r3, [r0, #56]
1337:Drivers/STM32F1xx_HAL_Driver/Src/stm32f1xx_ll_sdmmc.c ****   }
1338:Drivers/STM32F1xx_HAL_Driver/Src/stm32f1xx_ll_sdmmc.c **** 
1339:Drivers/STM32F1xx_HAL_Driver/Src/stm32f1xx_ll_sdmmc.c ****   return SDMMC_ERROR_NONE;
 133              		.loc 1 1339 0
 134 0044 0020     		movs	r0, #0
 135              	.LVL12:
 136 0046 7047     		bx	lr
 137              	.LVL13:
 138              	.L13:
1328:Drivers/STM32F1xx_HAL_Driver/Src/stm32f1xx_ll_sdmmc.c ****     
 139              		.loc 1 1328 0
 140 0048 0123     		movs	r3, #1
 141 004a 8363     		str	r3, [r0, #56]
1330:Drivers/STM32F1xx_HAL_Driver/Src/stm32f1xx_ll_sdmmc.c ****   }
ARM GAS  /tmp/cc3JF8Cu.s 			page 27


 142              		.loc 1 1330 0
 143 004c 1846     		mov	r0, r3
 144              	.LVL14:
 145 004e 7047     		bx	lr
 146              	.LVL15:
 147              	.L12:
1314:Drivers/STM32F1xx_HAL_Driver/Src/stm32f1xx_ll_sdmmc.c ****     }
 148              		.loc 1 1314 0
 149 0050 4FF00040 		mov	r0, #-2147483648
 150              	.LVL16:
1340:Drivers/STM32F1xx_HAL_Driver/Src/stm32f1xx_ll_sdmmc.c **** }
 151              		.loc 1 1340 0
 152 0054 7047     		bx	lr
 153              	.L15:
 154 0056 00BF     		.align	2
 155              	.L14:
 156 0058 00000000 		.word	SystemCoreClock
 157 005c D34D6210 		.word	274877907
 158              		.cfi_endproc
 159              	.LFE105:
 161              		.section	.text.SDMMC_GetCmdResp3,"ax",%progbits
 162              		.align	1
 163              		.syntax unified
 164              		.thumb
 165              		.thumb_func
 166              		.fpu softvfp
 168              	SDMMC_GetCmdResp3:
 169              	.LFB106:
1341:Drivers/STM32F1xx_HAL_Driver/Src/stm32f1xx_ll_sdmmc.c **** 
1342:Drivers/STM32F1xx_HAL_Driver/Src/stm32f1xx_ll_sdmmc.c **** /**
1343:Drivers/STM32F1xx_HAL_Driver/Src/stm32f1xx_ll_sdmmc.c ****   * @brief  Checks for error conditions for R3 (OCR) response.
1344:Drivers/STM32F1xx_HAL_Driver/Src/stm32f1xx_ll_sdmmc.c ****   * @param  hsd: SD handle
1345:Drivers/STM32F1xx_HAL_Driver/Src/stm32f1xx_ll_sdmmc.c ****   * @retval SD Card error state
1346:Drivers/STM32F1xx_HAL_Driver/Src/stm32f1xx_ll_sdmmc.c ****   */
1347:Drivers/STM32F1xx_HAL_Driver/Src/stm32f1xx_ll_sdmmc.c **** static uint32_t SDMMC_GetCmdResp3(SDIO_TypeDef *SDIOx)
1348:Drivers/STM32F1xx_HAL_Driver/Src/stm32f1xx_ll_sdmmc.c **** {
 170              		.loc 1 1348 0
 171              		.cfi_startproc
 172              		@ args = 0, pretend = 0, frame = 0
 173              		@ frame_needed = 0, uses_anonymous_args = 0
 174              		@ link register save eliminated.
 175              	.LVL17:
1349:Drivers/STM32F1xx_HAL_Driver/Src/stm32f1xx_ll_sdmmc.c ****   uint32_t sta_reg;
1350:Drivers/STM32F1xx_HAL_Driver/Src/stm32f1xx_ll_sdmmc.c ****   /* 8 is the number of required instructions cycles for the below loop statement.
1351:Drivers/STM32F1xx_HAL_Driver/Src/stm32f1xx_ll_sdmmc.c ****   The SDIO_CMDTIMEOUT is expressed in ms */
1352:Drivers/STM32F1xx_HAL_Driver/Src/stm32f1xx_ll_sdmmc.c ****   register uint32_t count = SDIO_CMDTIMEOUT * (SystemCoreClock / 8U /1000U);
 176              		.loc 1 1352 0
 177 0000 114B     		ldr	r3, .L21
 178 0002 1B68     		ldr	r3, [r3]
 179 0004 114A     		ldr	r2, .L21+4
 180 0006 A2FB0323 		umull	r2, r3, r2, r3
 181 000a 5A0A     		lsrs	r2, r3, #9
 182 000c 41F28833 		movw	r3, #5000
 183 0010 03FB02F3 		mul	r3, r3, r2
 184              	.LVL18:
 185              	.L18:
1353:Drivers/STM32F1xx_HAL_Driver/Src/stm32f1xx_ll_sdmmc.c ****   
ARM GAS  /tmp/cc3JF8Cu.s 			page 28


1354:Drivers/STM32F1xx_HAL_Driver/Src/stm32f1xx_ll_sdmmc.c ****   do
1355:Drivers/STM32F1xx_HAL_Driver/Src/stm32f1xx_ll_sdmmc.c ****   {
1356:Drivers/STM32F1xx_HAL_Driver/Src/stm32f1xx_ll_sdmmc.c ****     if (count-- == 0U)
 186              		.loc 1 1356 0
 187 0014 5A1E     		subs	r2, r3, #1
 188              	.LVL19:
 189 0016 9BB1     		cbz	r3, .L20
1357:Drivers/STM32F1xx_HAL_Driver/Src/stm32f1xx_ll_sdmmc.c ****     {
1358:Drivers/STM32F1xx_HAL_Driver/Src/stm32f1xx_ll_sdmmc.c ****       return SDMMC_ERROR_TIMEOUT;
1359:Drivers/STM32F1xx_HAL_Driver/Src/stm32f1xx_ll_sdmmc.c ****     }
1360:Drivers/STM32F1xx_HAL_Driver/Src/stm32f1xx_ll_sdmmc.c ****     sta_reg = SDIOx->STA;
 190              		.loc 1 1360 0
 191 0018 416B     		ldr	r1, [r0, #52]
 192              	.LVL20:
 193 001a 1346     		mov	r3, r2
1361:Drivers/STM32F1xx_HAL_Driver/Src/stm32f1xx_ll_sdmmc.c ****   }while(((sta_reg & (SDIO_FLAG_CCRCFAIL | SDIO_FLAG_CMDREND | SDIO_FLAG_CTIMEOUT)) == 0U) ||
1362:Drivers/STM32F1xx_HAL_Driver/Src/stm32f1xx_ll_sdmmc.c ****          ((sta_reg & SDIO_FLAG_CMDACT) != 0U ));
 194              		.loc 1 1362 0
 195 001c 11F0450F 		tst	r1, #69
 196 0020 F8D0     		beq	.L18
1361:Drivers/STM32F1xx_HAL_Driver/Src/stm32f1xx_ll_sdmmc.c ****   }while(((sta_reg & (SDIO_FLAG_CCRCFAIL | SDIO_FLAG_CMDREND | SDIO_FLAG_CTIMEOUT)) == 0U) ||
 197              		.loc 1 1361 0 discriminator 1
 198 0022 11F4006F 		tst	r1, #2048
 199 0026 F5D1     		bne	.L18
1363:Drivers/STM32F1xx_HAL_Driver/Src/stm32f1xx_ll_sdmmc.c ****     
1364:Drivers/STM32F1xx_HAL_Driver/Src/stm32f1xx_ll_sdmmc.c ****   if(__SDIO_GET_FLAG(SDIOx, SDIO_FLAG_CTIMEOUT))
 200              		.loc 1 1364 0
 201 0028 436B     		ldr	r3, [r0, #52]
 202 002a 13F0040F 		tst	r3, #4
 203 002e 03D0     		beq	.L19
1365:Drivers/STM32F1xx_HAL_Driver/Src/stm32f1xx_ll_sdmmc.c ****   {
1366:Drivers/STM32F1xx_HAL_Driver/Src/stm32f1xx_ll_sdmmc.c ****     __SDIO_CLEAR_FLAG(SDIOx, SDIO_FLAG_CTIMEOUT);
 204              		.loc 1 1366 0
 205 0030 0423     		movs	r3, #4
 206 0032 8363     		str	r3, [r0, #56]
1367:Drivers/STM32F1xx_HAL_Driver/Src/stm32f1xx_ll_sdmmc.c ****     
1368:Drivers/STM32F1xx_HAL_Driver/Src/stm32f1xx_ll_sdmmc.c ****     return SDMMC_ERROR_CMD_RSP_TIMEOUT;
 207              		.loc 1 1368 0
 208 0034 1846     		mov	r0, r3
 209              	.LVL21:
 210 0036 7047     		bx	lr
 211              	.LVL22:
 212              	.L19:
1369:Drivers/STM32F1xx_HAL_Driver/Src/stm32f1xx_ll_sdmmc.c ****   }
1370:Drivers/STM32F1xx_HAL_Driver/Src/stm32f1xx_ll_sdmmc.c ****   else
1371:Drivers/STM32F1xx_HAL_Driver/Src/stm32f1xx_ll_sdmmc.c ****   {  
1372:Drivers/STM32F1xx_HAL_Driver/Src/stm32f1xx_ll_sdmmc.c ****     /* Clear all the static flags */
1373:Drivers/STM32F1xx_HAL_Driver/Src/stm32f1xx_ll_sdmmc.c ****     __SDIO_CLEAR_FLAG(SDIOx, SDIO_STATIC_CMD_FLAGS);
 213              		.loc 1 1373 0
 214 0038 C523     		movs	r3, #197
 215 003a 8363     		str	r3, [r0, #56]
1374:Drivers/STM32F1xx_HAL_Driver/Src/stm32f1xx_ll_sdmmc.c ****   }
1375:Drivers/STM32F1xx_HAL_Driver/Src/stm32f1xx_ll_sdmmc.c ****   
1376:Drivers/STM32F1xx_HAL_Driver/Src/stm32f1xx_ll_sdmmc.c ****   return SDMMC_ERROR_NONE;
 216              		.loc 1 1376 0
 217 003c 0020     		movs	r0, #0
 218              	.LVL23:
ARM GAS  /tmp/cc3JF8Cu.s 			page 29


 219 003e 7047     		bx	lr
 220              	.LVL24:
 221              	.L20:
1358:Drivers/STM32F1xx_HAL_Driver/Src/stm32f1xx_ll_sdmmc.c ****     }
 222              		.loc 1 1358 0
 223 0040 4FF00040 		mov	r0, #-2147483648
 224              	.LVL25:
1377:Drivers/STM32F1xx_HAL_Driver/Src/stm32f1xx_ll_sdmmc.c **** }
 225              		.loc 1 1377 0
 226 0044 7047     		bx	lr
 227              	.L22:
 228 0046 00BF     		.align	2
 229              	.L21:
 230 0048 00000000 		.word	SystemCoreClock
 231 004c D34D6210 		.word	274877907
 232              		.cfi_endproc
 233              	.LFE106:
 235              		.section	.text.SDMMC_GetCmdResp7,"ax",%progbits
 236              		.align	1
 237              		.syntax unified
 238              		.thumb
 239              		.thumb_func
 240              		.fpu softvfp
 242              	SDMMC_GetCmdResp7:
 243              	.LFB108:
1378:Drivers/STM32F1xx_HAL_Driver/Src/stm32f1xx_ll_sdmmc.c **** 
1379:Drivers/STM32F1xx_HAL_Driver/Src/stm32f1xx_ll_sdmmc.c **** /**
1380:Drivers/STM32F1xx_HAL_Driver/Src/stm32f1xx_ll_sdmmc.c ****   * @brief  Checks for error conditions for R6 (RCA) response.
1381:Drivers/STM32F1xx_HAL_Driver/Src/stm32f1xx_ll_sdmmc.c ****   * @param  hsd: SD handle
1382:Drivers/STM32F1xx_HAL_Driver/Src/stm32f1xx_ll_sdmmc.c ****   * @param  SD_CMD: The sent command index
1383:Drivers/STM32F1xx_HAL_Driver/Src/stm32f1xx_ll_sdmmc.c ****   * @param  pRCA: Pointer to the variable that will contain the SD card relative 
1384:Drivers/STM32F1xx_HAL_Driver/Src/stm32f1xx_ll_sdmmc.c ****   *         address RCA   
1385:Drivers/STM32F1xx_HAL_Driver/Src/stm32f1xx_ll_sdmmc.c ****   * @retval SD Card error state
1386:Drivers/STM32F1xx_HAL_Driver/Src/stm32f1xx_ll_sdmmc.c ****   */
1387:Drivers/STM32F1xx_HAL_Driver/Src/stm32f1xx_ll_sdmmc.c **** static uint32_t SDMMC_GetCmdResp6(SDIO_TypeDef *SDIOx, uint8_t SD_CMD, uint16_t *pRCA)
1388:Drivers/STM32F1xx_HAL_Driver/Src/stm32f1xx_ll_sdmmc.c **** {
1389:Drivers/STM32F1xx_HAL_Driver/Src/stm32f1xx_ll_sdmmc.c ****   uint32_t response_r1;
1390:Drivers/STM32F1xx_HAL_Driver/Src/stm32f1xx_ll_sdmmc.c ****   uint32_t sta_reg;
1391:Drivers/STM32F1xx_HAL_Driver/Src/stm32f1xx_ll_sdmmc.c **** 
1392:Drivers/STM32F1xx_HAL_Driver/Src/stm32f1xx_ll_sdmmc.c ****   /* 8 is the number of required instructions cycles for the below loop statement.
1393:Drivers/STM32F1xx_HAL_Driver/Src/stm32f1xx_ll_sdmmc.c ****   The SDIO_CMDTIMEOUT is expressed in ms */
1394:Drivers/STM32F1xx_HAL_Driver/Src/stm32f1xx_ll_sdmmc.c ****   register uint32_t count = SDIO_CMDTIMEOUT * (SystemCoreClock / 8U /1000U);
1395:Drivers/STM32F1xx_HAL_Driver/Src/stm32f1xx_ll_sdmmc.c ****   
1396:Drivers/STM32F1xx_HAL_Driver/Src/stm32f1xx_ll_sdmmc.c ****   do
1397:Drivers/STM32F1xx_HAL_Driver/Src/stm32f1xx_ll_sdmmc.c ****   {
1398:Drivers/STM32F1xx_HAL_Driver/Src/stm32f1xx_ll_sdmmc.c ****     if (count-- == 0U)
1399:Drivers/STM32F1xx_HAL_Driver/Src/stm32f1xx_ll_sdmmc.c ****     {
1400:Drivers/STM32F1xx_HAL_Driver/Src/stm32f1xx_ll_sdmmc.c ****       return SDMMC_ERROR_TIMEOUT;
1401:Drivers/STM32F1xx_HAL_Driver/Src/stm32f1xx_ll_sdmmc.c ****     }
1402:Drivers/STM32F1xx_HAL_Driver/Src/stm32f1xx_ll_sdmmc.c ****     sta_reg = SDIOx->STA;
1403:Drivers/STM32F1xx_HAL_Driver/Src/stm32f1xx_ll_sdmmc.c ****   }while(((sta_reg & (SDIO_FLAG_CCRCFAIL | SDIO_FLAG_CMDREND | SDIO_FLAG_CTIMEOUT)) == 0U) ||
1404:Drivers/STM32F1xx_HAL_Driver/Src/stm32f1xx_ll_sdmmc.c ****          ((sta_reg & SDIO_FLAG_CMDACT) != 0U ));
1405:Drivers/STM32F1xx_HAL_Driver/Src/stm32f1xx_ll_sdmmc.c ****     
1406:Drivers/STM32F1xx_HAL_Driver/Src/stm32f1xx_ll_sdmmc.c ****   if(__SDIO_GET_FLAG(SDIOx, SDIO_FLAG_CTIMEOUT))
1407:Drivers/STM32F1xx_HAL_Driver/Src/stm32f1xx_ll_sdmmc.c ****   {
1408:Drivers/STM32F1xx_HAL_Driver/Src/stm32f1xx_ll_sdmmc.c ****     __SDIO_CLEAR_FLAG(SDIOx, SDIO_FLAG_CTIMEOUT);
1409:Drivers/STM32F1xx_HAL_Driver/Src/stm32f1xx_ll_sdmmc.c ****     
ARM GAS  /tmp/cc3JF8Cu.s 			page 30


1410:Drivers/STM32F1xx_HAL_Driver/Src/stm32f1xx_ll_sdmmc.c ****     return SDMMC_ERROR_CMD_RSP_TIMEOUT;
1411:Drivers/STM32F1xx_HAL_Driver/Src/stm32f1xx_ll_sdmmc.c ****   }
1412:Drivers/STM32F1xx_HAL_Driver/Src/stm32f1xx_ll_sdmmc.c ****   else if(__SDIO_GET_FLAG(SDIOx, SDIO_FLAG_CCRCFAIL))
1413:Drivers/STM32F1xx_HAL_Driver/Src/stm32f1xx_ll_sdmmc.c ****   {
1414:Drivers/STM32F1xx_HAL_Driver/Src/stm32f1xx_ll_sdmmc.c ****     __SDIO_CLEAR_FLAG(SDIOx, SDIO_FLAG_CCRCFAIL);
1415:Drivers/STM32F1xx_HAL_Driver/Src/stm32f1xx_ll_sdmmc.c ****     
1416:Drivers/STM32F1xx_HAL_Driver/Src/stm32f1xx_ll_sdmmc.c ****     return SDMMC_ERROR_CMD_CRC_FAIL;
1417:Drivers/STM32F1xx_HAL_Driver/Src/stm32f1xx_ll_sdmmc.c ****   }
1418:Drivers/STM32F1xx_HAL_Driver/Src/stm32f1xx_ll_sdmmc.c ****   else
1419:Drivers/STM32F1xx_HAL_Driver/Src/stm32f1xx_ll_sdmmc.c ****   {
1420:Drivers/STM32F1xx_HAL_Driver/Src/stm32f1xx_ll_sdmmc.c ****     /* Nothing to do */
1421:Drivers/STM32F1xx_HAL_Driver/Src/stm32f1xx_ll_sdmmc.c ****   }
1422:Drivers/STM32F1xx_HAL_Driver/Src/stm32f1xx_ll_sdmmc.c ****   
1423:Drivers/STM32F1xx_HAL_Driver/Src/stm32f1xx_ll_sdmmc.c ****   /* Check response received is of desired command */
1424:Drivers/STM32F1xx_HAL_Driver/Src/stm32f1xx_ll_sdmmc.c ****   if(SDIO_GetCommandResponse(SDIOx) != SD_CMD)
1425:Drivers/STM32F1xx_HAL_Driver/Src/stm32f1xx_ll_sdmmc.c ****   {
1426:Drivers/STM32F1xx_HAL_Driver/Src/stm32f1xx_ll_sdmmc.c ****     return SDMMC_ERROR_CMD_CRC_FAIL;
1427:Drivers/STM32F1xx_HAL_Driver/Src/stm32f1xx_ll_sdmmc.c ****   }
1428:Drivers/STM32F1xx_HAL_Driver/Src/stm32f1xx_ll_sdmmc.c ****   
1429:Drivers/STM32F1xx_HAL_Driver/Src/stm32f1xx_ll_sdmmc.c ****   /* Clear all the static flags */
1430:Drivers/STM32F1xx_HAL_Driver/Src/stm32f1xx_ll_sdmmc.c ****   __SDIO_CLEAR_FLAG(SDIOx, SDIO_STATIC_CMD_FLAGS);
1431:Drivers/STM32F1xx_HAL_Driver/Src/stm32f1xx_ll_sdmmc.c ****   
1432:Drivers/STM32F1xx_HAL_Driver/Src/stm32f1xx_ll_sdmmc.c ****   /* We have received response, retrieve it.  */
1433:Drivers/STM32F1xx_HAL_Driver/Src/stm32f1xx_ll_sdmmc.c ****   response_r1 = SDIO_GetResponse(SDIOx, SDIO_RESP1);
1434:Drivers/STM32F1xx_HAL_Driver/Src/stm32f1xx_ll_sdmmc.c ****   
1435:Drivers/STM32F1xx_HAL_Driver/Src/stm32f1xx_ll_sdmmc.c ****   if((response_r1 & (SDMMC_R6_GENERAL_UNKNOWN_ERROR | SDMMC_R6_ILLEGAL_CMD | SDMMC_R6_COM_CRC_FAILE
1436:Drivers/STM32F1xx_HAL_Driver/Src/stm32f1xx_ll_sdmmc.c ****   {
1437:Drivers/STM32F1xx_HAL_Driver/Src/stm32f1xx_ll_sdmmc.c ****     *pRCA = (uint16_t) (response_r1 >> 16);
1438:Drivers/STM32F1xx_HAL_Driver/Src/stm32f1xx_ll_sdmmc.c ****     
1439:Drivers/STM32F1xx_HAL_Driver/Src/stm32f1xx_ll_sdmmc.c ****     return SDMMC_ERROR_NONE;
1440:Drivers/STM32F1xx_HAL_Driver/Src/stm32f1xx_ll_sdmmc.c ****   }
1441:Drivers/STM32F1xx_HAL_Driver/Src/stm32f1xx_ll_sdmmc.c ****   else if((response_r1 & SDMMC_R6_ILLEGAL_CMD) == SDMMC_R6_ILLEGAL_CMD)
1442:Drivers/STM32F1xx_HAL_Driver/Src/stm32f1xx_ll_sdmmc.c ****   {
1443:Drivers/STM32F1xx_HAL_Driver/Src/stm32f1xx_ll_sdmmc.c ****     return SDMMC_ERROR_ILLEGAL_CMD;
1444:Drivers/STM32F1xx_HAL_Driver/Src/stm32f1xx_ll_sdmmc.c ****   }
1445:Drivers/STM32F1xx_HAL_Driver/Src/stm32f1xx_ll_sdmmc.c ****   else if((response_r1 & SDMMC_R6_COM_CRC_FAILED) == SDMMC_R6_COM_CRC_FAILED)
1446:Drivers/STM32F1xx_HAL_Driver/Src/stm32f1xx_ll_sdmmc.c ****   {
1447:Drivers/STM32F1xx_HAL_Driver/Src/stm32f1xx_ll_sdmmc.c ****     return SDMMC_ERROR_COM_CRC_FAILED;
1448:Drivers/STM32F1xx_HAL_Driver/Src/stm32f1xx_ll_sdmmc.c ****   }
1449:Drivers/STM32F1xx_HAL_Driver/Src/stm32f1xx_ll_sdmmc.c ****   else
1450:Drivers/STM32F1xx_HAL_Driver/Src/stm32f1xx_ll_sdmmc.c ****   {
1451:Drivers/STM32F1xx_HAL_Driver/Src/stm32f1xx_ll_sdmmc.c ****     return SDMMC_ERROR_GENERAL_UNKNOWN_ERR;
1452:Drivers/STM32F1xx_HAL_Driver/Src/stm32f1xx_ll_sdmmc.c ****   }
1453:Drivers/STM32F1xx_HAL_Driver/Src/stm32f1xx_ll_sdmmc.c **** }
1454:Drivers/STM32F1xx_HAL_Driver/Src/stm32f1xx_ll_sdmmc.c **** 
1455:Drivers/STM32F1xx_HAL_Driver/Src/stm32f1xx_ll_sdmmc.c **** /**
1456:Drivers/STM32F1xx_HAL_Driver/Src/stm32f1xx_ll_sdmmc.c ****   * @brief  Checks for error conditions for R7 response.
1457:Drivers/STM32F1xx_HAL_Driver/Src/stm32f1xx_ll_sdmmc.c ****   * @param  hsd: SD handle
1458:Drivers/STM32F1xx_HAL_Driver/Src/stm32f1xx_ll_sdmmc.c ****   * @retval SD Card error state
1459:Drivers/STM32F1xx_HAL_Driver/Src/stm32f1xx_ll_sdmmc.c ****   */
1460:Drivers/STM32F1xx_HAL_Driver/Src/stm32f1xx_ll_sdmmc.c **** static uint32_t SDMMC_GetCmdResp7(SDIO_TypeDef *SDIOx)
1461:Drivers/STM32F1xx_HAL_Driver/Src/stm32f1xx_ll_sdmmc.c **** {
 244              		.loc 1 1461 0
 245              		.cfi_startproc
 246              		@ args = 0, pretend = 0, frame = 0
 247              		@ frame_needed = 0, uses_anonymous_args = 0
 248              		@ link register save eliminated.
ARM GAS  /tmp/cc3JF8Cu.s 			page 31


 249              	.LVL26:
1462:Drivers/STM32F1xx_HAL_Driver/Src/stm32f1xx_ll_sdmmc.c ****   uint32_t sta_reg;
1463:Drivers/STM32F1xx_HAL_Driver/Src/stm32f1xx_ll_sdmmc.c ****   /* 8 is the number of required instructions cycles for the below loop statement.
1464:Drivers/STM32F1xx_HAL_Driver/Src/stm32f1xx_ll_sdmmc.c ****   The SDIO_CMDTIMEOUT is expressed in ms */
1465:Drivers/STM32F1xx_HAL_Driver/Src/stm32f1xx_ll_sdmmc.c ****   register uint32_t count = SDIO_CMDTIMEOUT * (SystemCoreClock / 8U /1000U);
 250              		.loc 1 1465 0
 251 0000 184B     		ldr	r3, .L31
 252 0002 1B68     		ldr	r3, [r3]
 253 0004 184A     		ldr	r2, .L31+4
 254 0006 A2FB0323 		umull	r2, r3, r2, r3
 255 000a 5A0A     		lsrs	r2, r3, #9
 256 000c 41F28833 		movw	r3, #5000
 257 0010 03FB02F3 		mul	r3, r3, r2
 258              	.LVL27:
 259              	.L25:
1466:Drivers/STM32F1xx_HAL_Driver/Src/stm32f1xx_ll_sdmmc.c ****   
1467:Drivers/STM32F1xx_HAL_Driver/Src/stm32f1xx_ll_sdmmc.c ****   do
1468:Drivers/STM32F1xx_HAL_Driver/Src/stm32f1xx_ll_sdmmc.c ****   {
1469:Drivers/STM32F1xx_HAL_Driver/Src/stm32f1xx_ll_sdmmc.c ****     if (count-- == 0U)
 260              		.loc 1 1469 0
 261 0014 5A1E     		subs	r2, r3, #1
 262              	.LVL28:
 263 0016 FBB1     		cbz	r3, .L28
1470:Drivers/STM32F1xx_HAL_Driver/Src/stm32f1xx_ll_sdmmc.c ****     {
1471:Drivers/STM32F1xx_HAL_Driver/Src/stm32f1xx_ll_sdmmc.c ****       return SDMMC_ERROR_TIMEOUT;
1472:Drivers/STM32F1xx_HAL_Driver/Src/stm32f1xx_ll_sdmmc.c ****     }
1473:Drivers/STM32F1xx_HAL_Driver/Src/stm32f1xx_ll_sdmmc.c ****     sta_reg = SDIOx->STA;
 264              		.loc 1 1473 0
 265 0018 416B     		ldr	r1, [r0, #52]
 266              	.LVL29:
 267 001a 1346     		mov	r3, r2
1474:Drivers/STM32F1xx_HAL_Driver/Src/stm32f1xx_ll_sdmmc.c ****   }while(((sta_reg & (SDIO_FLAG_CCRCFAIL | SDIO_FLAG_CMDREND | SDIO_FLAG_CTIMEOUT)) == 0U) ||
1475:Drivers/STM32F1xx_HAL_Driver/Src/stm32f1xx_ll_sdmmc.c ****          ((sta_reg & SDIO_FLAG_CMDACT) != 0U ));
 268              		.loc 1 1475 0
 269 001c 11F0450F 		tst	r1, #69
 270 0020 F8D0     		beq	.L25
1474:Drivers/STM32F1xx_HAL_Driver/Src/stm32f1xx_ll_sdmmc.c ****   }while(((sta_reg & (SDIO_FLAG_CCRCFAIL | SDIO_FLAG_CMDREND | SDIO_FLAG_CTIMEOUT)) == 0U) ||
 271              		.loc 1 1474 0 discriminator 1
 272 0022 11F4006F 		tst	r1, #2048
 273 0026 F5D1     		bne	.L25
1476:Drivers/STM32F1xx_HAL_Driver/Src/stm32f1xx_ll_sdmmc.c ****     
1477:Drivers/STM32F1xx_HAL_Driver/Src/stm32f1xx_ll_sdmmc.c ****   if(__SDIO_GET_FLAG(SDIOx, SDIO_FLAG_CTIMEOUT))
 274              		.loc 1 1477 0
 275 0028 436B     		ldr	r3, [r0, #52]
 276 002a 13F0040F 		tst	r3, #4
 277 002e 03D0     		beq	.L26
1478:Drivers/STM32F1xx_HAL_Driver/Src/stm32f1xx_ll_sdmmc.c ****   {
1479:Drivers/STM32F1xx_HAL_Driver/Src/stm32f1xx_ll_sdmmc.c ****     /* Card is SD V2.0 compliant */
1480:Drivers/STM32F1xx_HAL_Driver/Src/stm32f1xx_ll_sdmmc.c ****     __SDIO_CLEAR_FLAG(SDIOx, SDIO_FLAG_CTIMEOUT);
 278              		.loc 1 1480 0
 279 0030 0423     		movs	r3, #4
 280 0032 8363     		str	r3, [r0, #56]
1481:Drivers/STM32F1xx_HAL_Driver/Src/stm32f1xx_ll_sdmmc.c ****     
1482:Drivers/STM32F1xx_HAL_Driver/Src/stm32f1xx_ll_sdmmc.c ****     return SDMMC_ERROR_CMD_RSP_TIMEOUT;
 281              		.loc 1 1482 0
 282 0034 1846     		mov	r0, r3
 283              	.LVL30:
ARM GAS  /tmp/cc3JF8Cu.s 			page 32


 284 0036 7047     		bx	lr
 285              	.LVL31:
 286              	.L26:
1483:Drivers/STM32F1xx_HAL_Driver/Src/stm32f1xx_ll_sdmmc.c ****   }
1484:Drivers/STM32F1xx_HAL_Driver/Src/stm32f1xx_ll_sdmmc.c ****   else if(__SDIO_GET_FLAG(SDIOx, SDIO_FLAG_CCRCFAIL))
 287              		.loc 1 1484 0
 288 0038 436B     		ldr	r3, [r0, #52]
 289 003a 13F0010F 		tst	r3, #1
 290 003e 07D1     		bne	.L30
1485:Drivers/STM32F1xx_HAL_Driver/Src/stm32f1xx_ll_sdmmc.c ****   {
1486:Drivers/STM32F1xx_HAL_Driver/Src/stm32f1xx_ll_sdmmc.c ****     /* Card is SD V2.0 compliant */
1487:Drivers/STM32F1xx_HAL_Driver/Src/stm32f1xx_ll_sdmmc.c ****     __SDIO_CLEAR_FLAG(SDIOx, SDIO_FLAG_CCRCFAIL);
1488:Drivers/STM32F1xx_HAL_Driver/Src/stm32f1xx_ll_sdmmc.c ****     
1489:Drivers/STM32F1xx_HAL_Driver/Src/stm32f1xx_ll_sdmmc.c ****     return SDMMC_ERROR_CMD_CRC_FAIL;
1490:Drivers/STM32F1xx_HAL_Driver/Src/stm32f1xx_ll_sdmmc.c ****   }
1491:Drivers/STM32F1xx_HAL_Driver/Src/stm32f1xx_ll_sdmmc.c ****   else
1492:Drivers/STM32F1xx_HAL_Driver/Src/stm32f1xx_ll_sdmmc.c ****   {
1493:Drivers/STM32F1xx_HAL_Driver/Src/stm32f1xx_ll_sdmmc.c ****     /* Nothing to do */
1494:Drivers/STM32F1xx_HAL_Driver/Src/stm32f1xx_ll_sdmmc.c ****   }
1495:Drivers/STM32F1xx_HAL_Driver/Src/stm32f1xx_ll_sdmmc.c ****   
1496:Drivers/STM32F1xx_HAL_Driver/Src/stm32f1xx_ll_sdmmc.c ****   if(__SDIO_GET_FLAG(SDIOx, SDIO_FLAG_CMDREND))
 291              		.loc 1 1496 0
 292 0040 436B     		ldr	r3, [r0, #52]
 293 0042 13F0400F 		tst	r3, #64
 294 0046 0AD0     		beq	.L29
1497:Drivers/STM32F1xx_HAL_Driver/Src/stm32f1xx_ll_sdmmc.c ****   {
1498:Drivers/STM32F1xx_HAL_Driver/Src/stm32f1xx_ll_sdmmc.c ****     /* Card is SD V2.0 compliant */
1499:Drivers/STM32F1xx_HAL_Driver/Src/stm32f1xx_ll_sdmmc.c ****     __SDIO_CLEAR_FLAG(SDIOx, SDIO_FLAG_CMDREND);
 295              		.loc 1 1499 0
 296 0048 4023     		movs	r3, #64
 297 004a 8363     		str	r3, [r0, #56]
1500:Drivers/STM32F1xx_HAL_Driver/Src/stm32f1xx_ll_sdmmc.c ****   }
1501:Drivers/STM32F1xx_HAL_Driver/Src/stm32f1xx_ll_sdmmc.c ****   
1502:Drivers/STM32F1xx_HAL_Driver/Src/stm32f1xx_ll_sdmmc.c ****   return SDMMC_ERROR_NONE;
 298              		.loc 1 1502 0
 299 004c 0020     		movs	r0, #0
 300              	.LVL32:
 301 004e 7047     		bx	lr
 302              	.LVL33:
 303              	.L30:
1487:Drivers/STM32F1xx_HAL_Driver/Src/stm32f1xx_ll_sdmmc.c ****     
 304              		.loc 1 1487 0
 305 0050 0123     		movs	r3, #1
 306 0052 8363     		str	r3, [r0, #56]
1489:Drivers/STM32F1xx_HAL_Driver/Src/stm32f1xx_ll_sdmmc.c ****   }
 307              		.loc 1 1489 0
 308 0054 1846     		mov	r0, r3
 309              	.LVL34:
 310 0056 7047     		bx	lr
 311              	.LVL35:
 312              	.L28:
1471:Drivers/STM32F1xx_HAL_Driver/Src/stm32f1xx_ll_sdmmc.c ****     }
 313              		.loc 1 1471 0
 314 0058 4FF00040 		mov	r0, #-2147483648
 315              	.LVL36:
 316 005c 7047     		bx	lr
 317              	.LVL37:
ARM GAS  /tmp/cc3JF8Cu.s 			page 33


 318              	.L29:
 319              		.loc 1 1502 0
 320 005e 0020     		movs	r0, #0
 321              	.LVL38:
1503:Drivers/STM32F1xx_HAL_Driver/Src/stm32f1xx_ll_sdmmc.c ****   
1504:Drivers/STM32F1xx_HAL_Driver/Src/stm32f1xx_ll_sdmmc.c **** }
 322              		.loc 1 1504 0
 323 0060 7047     		bx	lr
 324              	.L32:
 325 0062 00BF     		.align	2
 326              	.L31:
 327 0064 00000000 		.word	SystemCoreClock
 328 0068 D34D6210 		.word	274877907
 329              		.cfi_endproc
 330              	.LFE108:
 332              		.section	.text.SDIO_Init,"ax",%progbits
 333              		.align	1
 334              		.global	SDIO_Init
 335              		.syntax unified
 336              		.thumb
 337              		.thumb_func
 338              		.fpu softvfp
 340              	SDIO_Init:
 341              	.LFB65:
 213:Drivers/STM32F1xx_HAL_Driver/Src/stm32f1xx_ll_sdmmc.c ****   uint32_t tmpreg = 0;
 342              		.loc 1 213 0
 343              		.cfi_startproc
 344              		@ args = 28, pretend = 16, frame = 0
 345              		@ frame_needed = 0, uses_anonymous_args = 0
 346              		@ link register save eliminated.
 347              	.LVL39:
 348 0000 84B0     		sub	sp, sp, #16
 349              	.LCFI0:
 350              		.cfi_def_cfa_offset 16
 351 0002 10B4     		push	{r4}
 352              	.LCFI1:
 353              		.cfi_def_cfa_offset 20
 354              		.cfi_offset 4, -20
 355 0004 02AC     		add	r4, sp, #8
 356 0006 84E80E00 		stm	r4, {r1, r2, r3}
 357              	.LVL40:
 227:Drivers/STM32F1xx_HAL_Driver/Src/stm32f1xx_ll_sdmmc.c ****              Init.ClockPowerSave      |\
 358              		.loc 1 227 0
 359 000a 039A     		ldr	r2, [sp, #12]
 226:Drivers/STM32F1xx_HAL_Driver/Src/stm32f1xx_ll_sdmmc.c ****              Init.ClockBypass         |\
 360              		.loc 1 226 0
 361 000c 0B46     		mov	r3, r1
 362 000e 1343     		orrs	r3, r3, r2
 228:Drivers/STM32F1xx_HAL_Driver/Src/stm32f1xx_ll_sdmmc.c ****              Init.BusWide             |\
 363              		.loc 1 228 0
 364 0010 049A     		ldr	r2, [sp, #16]
 227:Drivers/STM32F1xx_HAL_Driver/Src/stm32f1xx_ll_sdmmc.c ****              Init.ClockPowerSave      |\
 365              		.loc 1 227 0
 366 0012 1343     		orrs	r3, r3, r2
 229:Drivers/STM32F1xx_HAL_Driver/Src/stm32f1xx_ll_sdmmc.c ****              Init.HardwareFlowControl |\
 367              		.loc 1 229 0
 368 0014 059A     		ldr	r2, [sp, #20]
ARM GAS  /tmp/cc3JF8Cu.s 			page 34


 228:Drivers/STM32F1xx_HAL_Driver/Src/stm32f1xx_ll_sdmmc.c ****              Init.BusWide             |\
 369              		.loc 1 228 0
 370 0016 1343     		orrs	r3, r3, r2
 230:Drivers/STM32F1xx_HAL_Driver/Src/stm32f1xx_ll_sdmmc.c ****              Init.ClockDiv
 371              		.loc 1 230 0
 372 0018 069A     		ldr	r2, [sp, #24]
 229:Drivers/STM32F1xx_HAL_Driver/Src/stm32f1xx_ll_sdmmc.c ****              Init.HardwareFlowControl |\
 373              		.loc 1 229 0
 374 001a 1343     		orrs	r3, r3, r2
 231:Drivers/STM32F1xx_HAL_Driver/Src/stm32f1xx_ll_sdmmc.c ****              ); 
 375              		.loc 1 231 0
 376 001c 079A     		ldr	r2, [sp, #28]
 230:Drivers/STM32F1xx_HAL_Driver/Src/stm32f1xx_ll_sdmmc.c ****              Init.ClockDiv
 377              		.loc 1 230 0
 378 001e 1343     		orrs	r3, r3, r2
 379              	.LVL41:
 235:Drivers/STM32F1xx_HAL_Driver/Src/stm32f1xx_ll_sdmmc.c **** 
 380              		.loc 1 235 0
 381 0020 4268     		ldr	r2, [r0, #4]
 382 0022 22F4FD42 		bic	r2, r2, #32384
 383 0026 22F07F02 		bic	r2, r2, #127
 384 002a 1343     		orrs	r3, r3, r2
 385              	.LVL42:
 386 002c 4360     		str	r3, [r0, #4]
 238:Drivers/STM32F1xx_HAL_Driver/Src/stm32f1xx_ll_sdmmc.c **** 
 387              		.loc 1 238 0
 388 002e 0020     		movs	r0, #0
 389              	.LVL43:
 390 0030 10BC     		pop	{r4}
 391              	.LCFI2:
 392              		.cfi_restore 4
 393              		.cfi_def_cfa_offset 16
 394 0032 04B0     		add	sp, sp, #16
 395              	.LCFI3:
 396              		.cfi_def_cfa_offset 0
 397              	.LVL44:
 398 0034 7047     		bx	lr
 399              		.cfi_endproc
 400              	.LFE65:
 402              		.section	.text.SDIO_ReadFIFO,"ax",%progbits
 403              		.align	1
 404              		.global	SDIO_ReadFIFO
 405              		.syntax unified
 406              		.thumb
 407              		.thumb_func
 408              		.fpu softvfp
 410              	SDIO_ReadFIFO:
 411              	.LFB66:
 266:Drivers/STM32F1xx_HAL_Driver/Src/stm32f1xx_ll_sdmmc.c ****   /* Read data from Rx FIFO */ 
 412              		.loc 1 266 0
 413              		.cfi_startproc
 414              		@ args = 0, pretend = 0, frame = 0
 415              		@ frame_needed = 0, uses_anonymous_args = 0
 416              		@ link register save eliminated.
 417              	.LVL45:
 268:Drivers/STM32F1xx_HAL_Driver/Src/stm32f1xx_ll_sdmmc.c **** }
 418              		.loc 1 268 0
ARM GAS  /tmp/cc3JF8Cu.s 			page 35


 419 0000 D0F88000 		ldr	r0, [r0, #128]
 420              	.LVL46:
 269:Drivers/STM32F1xx_HAL_Driver/Src/stm32f1xx_ll_sdmmc.c **** 
 421              		.loc 1 269 0
 422 0004 7047     		bx	lr
 423              		.cfi_endproc
 424              	.LFE66:
 426              		.section	.text.SDIO_WriteFIFO,"ax",%progbits
 427              		.align	1
 428              		.global	SDIO_WriteFIFO
 429              		.syntax unified
 430              		.thumb
 431              		.thumb_func
 432              		.fpu softvfp
 434              	SDIO_WriteFIFO:
 435              	.LFB67:
 278:Drivers/STM32F1xx_HAL_Driver/Src/stm32f1xx_ll_sdmmc.c ****   /* Write data to FIFO */ 
 436              		.loc 1 278 0
 437              		.cfi_startproc
 438              		@ args = 0, pretend = 0, frame = 0
 439              		@ frame_needed = 0, uses_anonymous_args = 0
 440              		@ link register save eliminated.
 441              	.LVL47:
 280:Drivers/STM32F1xx_HAL_Driver/Src/stm32f1xx_ll_sdmmc.c **** 
 442              		.loc 1 280 0
 443 0000 0B68     		ldr	r3, [r1]
 444 0002 C0F88030 		str	r3, [r0, #128]
 283:Drivers/STM32F1xx_HAL_Driver/Src/stm32f1xx_ll_sdmmc.c **** 
 445              		.loc 1 283 0
 446 0006 0020     		movs	r0, #0
 447              	.LVL48:
 448 0008 7047     		bx	lr
 449              		.cfi_endproc
 450              	.LFE67:
 452              		.section	.text.SDIO_PowerState_ON,"ax",%progbits
 453              		.align	1
 454              		.global	SDIO_PowerState_ON
 455              		.syntax unified
 456              		.thumb
 457              		.thumb_func
 458              		.fpu softvfp
 460              	SDIO_PowerState_ON:
 461              	.LFB68:
 310:Drivers/STM32F1xx_HAL_Driver/Src/stm32f1xx_ll_sdmmc.c ****   /* Set power state to ON */ 
 462              		.loc 1 310 0
 463              		.cfi_startproc
 464              		@ args = 0, pretend = 0, frame = 0
 465              		@ frame_needed = 0, uses_anonymous_args = 0
 466              	.LVL49:
 467 0000 08B5     		push	{r3, lr}
 468              	.LCFI4:
 469              		.cfi_def_cfa_offset 8
 470              		.cfi_offset 3, -8
 471              		.cfi_offset 14, -4
 312:Drivers/STM32F1xx_HAL_Driver/Src/stm32f1xx_ll_sdmmc.c **** 
 472              		.loc 1 312 0
 473 0002 0323     		movs	r3, #3
ARM GAS  /tmp/cc3JF8Cu.s 			page 36


 474 0004 0360     		str	r3, [r0]
 316:Drivers/STM32F1xx_HAL_Driver/Src/stm32f1xx_ll_sdmmc.c ****   
 475              		.loc 1 316 0
 476 0006 0220     		movs	r0, #2
 477              	.LVL50:
 478 0008 FFF7FEFF 		bl	HAL_Delay
 479              	.LVL51:
 319:Drivers/STM32F1xx_HAL_Driver/Src/stm32f1xx_ll_sdmmc.c **** 
 480              		.loc 1 319 0
 481 000c 0020     		movs	r0, #0
 482 000e 08BD     		pop	{r3, pc}
 483              		.cfi_endproc
 484              	.LFE68:
 486              		.section	.text.SDIO_PowerState_OFF,"ax",%progbits
 487              		.align	1
 488              		.global	SDIO_PowerState_OFF
 489              		.syntax unified
 490              		.thumb
 491              		.thumb_func
 492              		.fpu softvfp
 494              	SDIO_PowerState_OFF:
 495              	.LFB69:
 327:Drivers/STM32F1xx_HAL_Driver/Src/stm32f1xx_ll_sdmmc.c ****   /* Set power state to OFF */
 496              		.loc 1 327 0
 497              		.cfi_startproc
 498              		@ args = 0, pretend = 0, frame = 0
 499              		@ frame_needed = 0, uses_anonymous_args = 0
 500              		@ link register save eliminated.
 501              	.LVL52:
 329:Drivers/STM32F1xx_HAL_Driver/Src/stm32f1xx_ll_sdmmc.c ****   
 502              		.loc 1 329 0
 503 0000 0023     		movs	r3, #0
 504 0002 0360     		str	r3, [r0]
 332:Drivers/STM32F1xx_HAL_Driver/Src/stm32f1xx_ll_sdmmc.c **** 
 505              		.loc 1 332 0
 506 0004 1846     		mov	r0, r3
 507              	.LVL53:
 508 0006 7047     		bx	lr
 509              		.cfi_endproc
 510              	.LFE69:
 512              		.section	.text.SDIO_GetPowerState,"ax",%progbits
 513              		.align	1
 514              		.global	SDIO_GetPowerState
 515              		.syntax unified
 516              		.thumb
 517              		.thumb_func
 518              		.fpu softvfp
 520              	SDIO_GetPowerState:
 521              	.LFB70:
 344:Drivers/STM32F1xx_HAL_Driver/Src/stm32f1xx_ll_sdmmc.c ****   return (SDIOx->POWER & SDIO_POWER_PWRCTRL);
 522              		.loc 1 344 0
 523              		.cfi_startproc
 524              		@ args = 0, pretend = 0, frame = 0
 525              		@ frame_needed = 0, uses_anonymous_args = 0
 526              		@ link register save eliminated.
 527              	.LVL54:
 345:Drivers/STM32F1xx_HAL_Driver/Src/stm32f1xx_ll_sdmmc.c **** }
ARM GAS  /tmp/cc3JF8Cu.s 			page 37


 528              		.loc 1 345 0
 529 0000 0068     		ldr	r0, [r0]
 530              	.LVL55:
 346:Drivers/STM32F1xx_HAL_Driver/Src/stm32f1xx_ll_sdmmc.c **** 
 531              		.loc 1 346 0
 532 0002 00F00300 		and	r0, r0, #3
 533 0006 7047     		bx	lr
 534              		.cfi_endproc
 535              	.LFE70:
 537              		.section	.text.SDIO_SendCommand,"ax",%progbits
 538              		.align	1
 539              		.global	SDIO_SendCommand
 540              		.syntax unified
 541              		.thumb
 542              		.thumb_func
 543              		.fpu softvfp
 545              	SDIO_SendCommand:
 546              	.LFB71:
 357:Drivers/STM32F1xx_HAL_Driver/Src/stm32f1xx_ll_sdmmc.c ****   uint32_t tmpreg = 0;
 547              		.loc 1 357 0
 548              		.cfi_startproc
 549              		@ args = 0, pretend = 0, frame = 0
 550              		@ frame_needed = 0, uses_anonymous_args = 0
 551              		@ link register save eliminated.
 552              	.LVL56:
 367:Drivers/STM32F1xx_HAL_Driver/Src/stm32f1xx_ll_sdmmc.c **** 
 553              		.loc 1 367 0
 554 0000 0B68     		ldr	r3, [r1]
 555 0002 8360     		str	r3, [r0, #8]
 370:Drivers/STM32F1xx_HAL_Driver/Src/stm32f1xx_ll_sdmmc.c ****                        Command->Response         |\
 556              		.loc 1 370 0
 557 0004 4B68     		ldr	r3, [r1, #4]
 371:Drivers/STM32F1xx_HAL_Driver/Src/stm32f1xx_ll_sdmmc.c ****                        Command->WaitForInterrupt |\
 558              		.loc 1 371 0
 559 0006 8A68     		ldr	r2, [r1, #8]
 370:Drivers/STM32F1xx_HAL_Driver/Src/stm32f1xx_ll_sdmmc.c ****                        Command->Response         |\
 560              		.loc 1 370 0
 561 0008 1343     		orrs	r3, r3, r2
 372:Drivers/STM32F1xx_HAL_Driver/Src/stm32f1xx_ll_sdmmc.c ****                        Command->CPSM);
 562              		.loc 1 372 0
 563 000a CA68     		ldr	r2, [r1, #12]
 371:Drivers/STM32F1xx_HAL_Driver/Src/stm32f1xx_ll_sdmmc.c ****                        Command->WaitForInterrupt |\
 564              		.loc 1 371 0
 565 000c 1343     		orrs	r3, r3, r2
 373:Drivers/STM32F1xx_HAL_Driver/Src/stm32f1xx_ll_sdmmc.c ****   
 566              		.loc 1 373 0
 567 000e 0A69     		ldr	r2, [r1, #16]
 372:Drivers/STM32F1xx_HAL_Driver/Src/stm32f1xx_ll_sdmmc.c ****                        Command->CPSM);
 568              		.loc 1 372 0
 569 0010 1343     		orrs	r3, r3, r2
 570              	.LVL57:
 376:Drivers/STM32F1xx_HAL_Driver/Src/stm32f1xx_ll_sdmmc.c ****   
 571              		.loc 1 376 0
 572 0012 C268     		ldr	r2, [r0, #12]
 573 0014 22F47F62 		bic	r2, r2, #4080
 574 0018 22F00F02 		bic	r2, r2, #15
 575 001c 1343     		orrs	r3, r3, r2
ARM GAS  /tmp/cc3JF8Cu.s 			page 38


 576              	.LVL58:
 577 001e C360     		str	r3, [r0, #12]
 578              	.LVL59:
 379:Drivers/STM32F1xx_HAL_Driver/Src/stm32f1xx_ll_sdmmc.c **** 
 579              		.loc 1 379 0
 580 0020 0020     		movs	r0, #0
 581              	.LVL60:
 582 0022 7047     		bx	lr
 583              		.cfi_endproc
 584              	.LFE71:
 586              		.section	.text.SDIO_GetCommandResponse,"ax",%progbits
 587              		.align	1
 588              		.global	SDIO_GetCommandResponse
 589              		.syntax unified
 590              		.thumb
 591              		.thumb_func
 592              		.fpu softvfp
 594              	SDIO_GetCommandResponse:
 595              	.LFB72:
 387:Drivers/STM32F1xx_HAL_Driver/Src/stm32f1xx_ll_sdmmc.c ****   return (uint8_t)(SDIOx->RESPCMD);
 596              		.loc 1 387 0
 597              		.cfi_startproc
 598              		@ args = 0, pretend = 0, frame = 0
 599              		@ frame_needed = 0, uses_anonymous_args = 0
 600              		@ link register save eliminated.
 601              	.LVL61:
 388:Drivers/STM32F1xx_HAL_Driver/Src/stm32f1xx_ll_sdmmc.c **** }
 602              		.loc 1 388 0
 603 0000 0069     		ldr	r0, [r0, #16]
 604              	.LVL62:
 389:Drivers/STM32F1xx_HAL_Driver/Src/stm32f1xx_ll_sdmmc.c **** 
 605              		.loc 1 389 0
 606 0002 C0B2     		uxtb	r0, r0
 607 0004 7047     		bx	lr
 608              		.cfi_endproc
 609              	.LFE72:
 611              		.section	.text.SDIO_GetResponse,"ax",%progbits
 612              		.align	1
 613              		.global	SDIO_GetResponse
 614              		.syntax unified
 615              		.thumb
 616              		.thumb_func
 617              		.fpu softvfp
 619              	SDIO_GetResponse:
 620              	.LFB73:
 404:Drivers/STM32F1xx_HAL_Driver/Src/stm32f1xx_ll_sdmmc.c ****   uint32_t tmp;
 621              		.loc 1 404 0
 622              		.cfi_startproc
 623              		@ args = 0, pretend = 0, frame = 0
 624              		@ frame_needed = 0, uses_anonymous_args = 0
 625              		@ link register save eliminated.
 626              	.LVL63:
 411:Drivers/STM32F1xx_HAL_Driver/Src/stm32f1xx_ll_sdmmc.c ****   
 627              		.loc 1 411 0
 628 0000 1430     		adds	r0, r0, #20
 629              	.LVL64:
 413:Drivers/STM32F1xx_HAL_Driver/Src/stm32f1xx_ll_sdmmc.c **** }  
ARM GAS  /tmp/cc3JF8Cu.s 			page 39


 630              		.loc 1 413 0
 631 0002 4058     		ldr	r0, [r0, r1]
 632              	.LVL65:
 414:Drivers/STM32F1xx_HAL_Driver/Src/stm32f1xx_ll_sdmmc.c **** 
 633              		.loc 1 414 0
 634 0004 7047     		bx	lr
 635              		.cfi_endproc
 636              	.LFE73:
 638              		.section	.text.SDMMC_GetCmdResp1,"ax",%progbits
 639              		.align	1
 640              		.syntax unified
 641              		.thumb
 642              		.thumb_func
 643              		.fpu softvfp
 645              	SDMMC_GetCmdResp1:
 646              	.LFB104:
1169:Drivers/STM32F1xx_HAL_Driver/Src/stm32f1xx_ll_sdmmc.c ****   uint32_t response_r1;
 647              		.loc 1 1169 0
 648              		.cfi_startproc
 649              		@ args = 0, pretend = 0, frame = 0
 650              		@ frame_needed = 0, uses_anonymous_args = 0
 651              	.LVL66:
 652 0000 38B5     		push	{r3, r4, r5, lr}
 653              	.LCFI5:
 654              		.cfi_def_cfa_offset 16
 655              		.cfi_offset 3, -16
 656              		.cfi_offset 4, -12
 657              		.cfi_offset 5, -8
 658              		.cfi_offset 14, -4
1175:Drivers/STM32F1xx_HAL_Driver/Src/stm32f1xx_ll_sdmmc.c ****   
 659              		.loc 1 1175 0
 660 0002 524B     		ldr	r3, .L73
 661 0004 1B68     		ldr	r3, [r3]
 662 0006 524C     		ldr	r4, .L73+4
 663 0008 A4FB0343 		umull	r4, r3, r4, r3
 664 000c 5B0A     		lsrs	r3, r3, #9
 665 000e 02FB03F2 		mul	r2, r2, r3
 666              	.LVL67:
 667              	.L46:
1179:Drivers/STM32F1xx_HAL_Driver/Src/stm32f1xx_ll_sdmmc.c ****     {
 668              		.loc 1 1179 0
 669 0012 531E     		subs	r3, r2, #1
 670              	.LVL68:
 671 0014 002A     		cmp	r2, #0
 672 0016 62D0     		beq	.L49
1183:Drivers/STM32F1xx_HAL_Driver/Src/stm32f1xx_ll_sdmmc.c ****   }while(((sta_reg & (SDIO_FLAG_CCRCFAIL | SDIO_FLAG_CMDREND | SDIO_FLAG_CTIMEOUT)) == 0U) ||
 673              		.loc 1 1183 0
 674 0018 446B     		ldr	r4, [r0, #52]
 675              	.LVL69:
 676 001a 1A46     		mov	r2, r3
1185:Drivers/STM32F1xx_HAL_Driver/Src/stm32f1xx_ll_sdmmc.c ****     
 677              		.loc 1 1185 0
 678 001c 14F0450F 		tst	r4, #69
 679 0020 F7D0     		beq	.L46
1184:Drivers/STM32F1xx_HAL_Driver/Src/stm32f1xx_ll_sdmmc.c ****          ((sta_reg & SDIO_FLAG_CMDACT) != 0U ));
 680              		.loc 1 1184 0 discriminator 1
 681 0022 14F4006F 		tst	r4, #2048
ARM GAS  /tmp/cc3JF8Cu.s 			page 40


 682 0026 F4D1     		bne	.L46
1187:Drivers/STM32F1xx_HAL_Driver/Src/stm32f1xx_ll_sdmmc.c ****   {
 683              		.loc 1 1187 0
 684 0028 436B     		ldr	r3, [r0, #52]
 685              	.LVL70:
 686 002a 13F0040F 		tst	r3, #4
 687 002e 03D0     		beq	.L47
1189:Drivers/STM32F1xx_HAL_Driver/Src/stm32f1xx_ll_sdmmc.c ****     
 688              		.loc 1 1189 0
 689 0030 0423     		movs	r3, #4
 690 0032 8363     		str	r3, [r0, #56]
1191:Drivers/STM32F1xx_HAL_Driver/Src/stm32f1xx_ll_sdmmc.c ****   }
 691              		.loc 1 1191 0
 692 0034 1846     		mov	r0, r3
 693              	.LVL71:
 694 0036 38BD     		pop	{r3, r4, r5, pc}
 695              	.LVL72:
 696              	.L47:
1193:Drivers/STM32F1xx_HAL_Driver/Src/stm32f1xx_ll_sdmmc.c ****   {
 697              		.loc 1 1193 0
 698 0038 436B     		ldr	r3, [r0, #52]
 699 003a 13F0010F 		tst	r3, #1
 700 003e 03D0     		beq	.L48
1195:Drivers/STM32F1xx_HAL_Driver/Src/stm32f1xx_ll_sdmmc.c ****     
 701              		.loc 1 1195 0
 702 0040 0123     		movs	r3, #1
 703 0042 8363     		str	r3, [r0, #56]
1197:Drivers/STM32F1xx_HAL_Driver/Src/stm32f1xx_ll_sdmmc.c ****   }
 704              		.loc 1 1197 0
 705 0044 1846     		mov	r0, r3
 706              	.LVL73:
 707 0046 38BD     		pop	{r3, r4, r5, pc}
 708              	.LVL74:
 709              	.L48:
 710 0048 0D46     		mov	r5, r1
 711 004a 0446     		mov	r4, r0
 712              	.LVL75:
1205:Drivers/STM32F1xx_HAL_Driver/Src/stm32f1xx_ll_sdmmc.c ****   
 713              		.loc 1 1205 0
 714 004c C523     		movs	r3, #197
 715 004e 8363     		str	r3, [r0, #56]
1208:Drivers/STM32F1xx_HAL_Driver/Src/stm32f1xx_ll_sdmmc.c ****   {
 716              		.loc 1 1208 0
 717 0050 FFF7FEFF 		bl	SDIO_GetCommandResponse
 718              	.LVL76:
 719 0054 A842     		cmp	r0, r5
 720 0056 01D0     		beq	.L71
1210:Drivers/STM32F1xx_HAL_Driver/Src/stm32f1xx_ll_sdmmc.c ****   }
 721              		.loc 1 1210 0
 722 0058 0120     		movs	r0, #1
 723 005a 38BD     		pop	{r3, r4, r5, pc}
 724              	.LVL77:
 725              	.L71:
1214:Drivers/STM32F1xx_HAL_Driver/Src/stm32f1xx_ll_sdmmc.c ****   
 726              		.loc 1 1214 0
 727 005c 0021     		movs	r1, #0
 728 005e 2046     		mov	r0, r4
ARM GAS  /tmp/cc3JF8Cu.s 			page 41


 729 0060 FFF7FEFF 		bl	SDIO_GetResponse
 730              	.LVL78:
1216:Drivers/STM32F1xx_HAL_Driver/Src/stm32f1xx_ll_sdmmc.c ****   {
 731              		.loc 1 1216 0
 732 0064 3B4B     		ldr	r3, .L73+8
 733 0066 0340     		ands	r3, r3, r0
 734 0068 E3B3     		cbz	r3, .L51
1220:Drivers/STM32F1xx_HAL_Driver/Src/stm32f1xx_ll_sdmmc.c ****   {
 735              		.loc 1 1220 0
 736 006a 0028     		cmp	r0, #0
 737 006c 3CDB     		blt	.L52
1224:Drivers/STM32F1xx_HAL_Driver/Src/stm32f1xx_ll_sdmmc.c ****   {
 738              		.loc 1 1224 0
 739 006e 10F0804F 		tst	r0, #1073741824
 740 0072 3CD1     		bne	.L53
1228:Drivers/STM32F1xx_HAL_Driver/Src/stm32f1xx_ll_sdmmc.c ****   {
 741              		.loc 1 1228 0
 742 0074 10F0005F 		tst	r0, #536870912
 743 0078 01D0     		beq	.L72
1230:Drivers/STM32F1xx_HAL_Driver/Src/stm32f1xx_ll_sdmmc.c ****   }
 744              		.loc 1 1230 0
 745 007a 8020     		movs	r0, #128
 746              	.LVL79:
 747 007c 38BD     		pop	{r3, r4, r5, pc}
 748              	.LVL80:
 749              	.L72:
1232:Drivers/STM32F1xx_HAL_Driver/Src/stm32f1xx_ll_sdmmc.c ****   {
 750              		.loc 1 1232 0
 751 007e 10F0805F 		tst	r0, #268435456
 752 0082 36D1     		bne	.L55
1236:Drivers/STM32F1xx_HAL_Driver/Src/stm32f1xx_ll_sdmmc.c ****   {
 753              		.loc 1 1236 0
 754 0084 10F0006F 		tst	r0, #134217728
 755 0088 36D1     		bne	.L56
1240:Drivers/STM32F1xx_HAL_Driver/Src/stm32f1xx_ll_sdmmc.c ****   {
 756              		.loc 1 1240 0
 757 008a 10F0806F 		tst	r0, #67108864
 758 008e 36D1     		bne	.L57
1244:Drivers/STM32F1xx_HAL_Driver/Src/stm32f1xx_ll_sdmmc.c ****   {
 759              		.loc 1 1244 0
 760 0090 10F0807F 		tst	r0, #16777216
 761 0094 36D1     		bne	.L58
1248:Drivers/STM32F1xx_HAL_Driver/Src/stm32f1xx_ll_sdmmc.c ****   {
 762              		.loc 1 1248 0
 763 0096 10F4000F 		tst	r0, #8388608
 764 009a 36D1     		bne	.L59
1252:Drivers/STM32F1xx_HAL_Driver/Src/stm32f1xx_ll_sdmmc.c ****   {
 765              		.loc 1 1252 0
 766 009c 10F4800F 		tst	r0, #4194304
 767 00a0 36D1     		bne	.L60
1256:Drivers/STM32F1xx_HAL_Driver/Src/stm32f1xx_ll_sdmmc.c ****   {
 768              		.loc 1 1256 0
 769 00a2 10F4001F 		tst	r0, #2097152
 770 00a6 36D1     		bne	.L61
1260:Drivers/STM32F1xx_HAL_Driver/Src/stm32f1xx_ll_sdmmc.c ****   {
 771              		.loc 1 1260 0
 772 00a8 10F4801F 		tst	r0, #1048576
ARM GAS  /tmp/cc3JF8Cu.s 			page 42


 773 00ac 36D1     		bne	.L62
1264:Drivers/STM32F1xx_HAL_Driver/Src/stm32f1xx_ll_sdmmc.c ****   {
 774              		.loc 1 1264 0
 775 00ae 10F4802F 		tst	r0, #262144
 776 00b2 36D1     		bne	.L63
1268:Drivers/STM32F1xx_HAL_Driver/Src/stm32f1xx_ll_sdmmc.c ****   {
 777              		.loc 1 1268 0
 778 00b4 10F4003F 		tst	r0, #131072
 779 00b8 36D1     		bne	.L64
1272:Drivers/STM32F1xx_HAL_Driver/Src/stm32f1xx_ll_sdmmc.c ****   {
 780              		.loc 1 1272 0
 781 00ba 10F4803F 		tst	r0, #65536
 782 00be 36D1     		bne	.L65
1276:Drivers/STM32F1xx_HAL_Driver/Src/stm32f1xx_ll_sdmmc.c ****   {
 783              		.loc 1 1276 0
 784 00c0 10F4004F 		tst	r0, #32768
 785 00c4 36D1     		bne	.L66
1280:Drivers/STM32F1xx_HAL_Driver/Src/stm32f1xx_ll_sdmmc.c ****   {
 786              		.loc 1 1280 0
 787 00c6 10F4804F 		tst	r0, #16384
 788 00ca 36D1     		bne	.L67
1284:Drivers/STM32F1xx_HAL_Driver/Src/stm32f1xx_ll_sdmmc.c ****   {
 789              		.loc 1 1284 0
 790 00cc 10F4005F 		tst	r0, #8192
 791 00d0 36D1     		bne	.L68
1288:Drivers/STM32F1xx_HAL_Driver/Src/stm32f1xx_ll_sdmmc.c ****   {
 792              		.loc 1 1288 0
 793 00d2 10F0080F 		tst	r0, #8
 794 00d6 36D0     		beq	.L69
1290:Drivers/STM32F1xx_HAL_Driver/Src/stm32f1xx_ll_sdmmc.c ****   }
 795              		.loc 1 1290 0
 796 00d8 4FF40000 		mov	r0, #8388608
 797              	.LVL81:
 798 00dc 38BD     		pop	{r3, r4, r5, pc}
 799              	.LVL82:
 800              	.L49:
1181:Drivers/STM32F1xx_HAL_Driver/Src/stm32f1xx_ll_sdmmc.c ****     }
 801              		.loc 1 1181 0
 802 00de 4FF00040 		mov	r0, #-2147483648
 803              	.LVL83:
 804 00e2 38BD     		pop	{r3, r4, r5, pc}
 805              	.LVL84:
 806              	.L51:
1218:Drivers/STM32F1xx_HAL_Driver/Src/stm32f1xx_ll_sdmmc.c ****   }
 807              		.loc 1 1218 0
 808 00e4 0020     		movs	r0, #0
 809              	.LVL85:
 810 00e6 38BD     		pop	{r3, r4, r5, pc}
 811              	.LVL86:
 812              	.L52:
1222:Drivers/STM32F1xx_HAL_Driver/Src/stm32f1xx_ll_sdmmc.c ****   }
 813              		.loc 1 1222 0
 814 00e8 4FF00070 		mov	r0, #33554432
 815              	.LVL87:
 816 00ec 38BD     		pop	{r3, r4, r5, pc}
 817              	.LVL88:
 818              	.L53:
ARM GAS  /tmp/cc3JF8Cu.s 			page 43


1226:Drivers/STM32F1xx_HAL_Driver/Src/stm32f1xx_ll_sdmmc.c ****   }
 819              		.loc 1 1226 0
 820 00ee 4020     		movs	r0, #64
 821              	.LVL89:
 822 00f0 38BD     		pop	{r3, r4, r5, pc}
 823              	.LVL90:
 824              	.L55:
1234:Drivers/STM32F1xx_HAL_Driver/Src/stm32f1xx_ll_sdmmc.c ****   }
 825              		.loc 1 1234 0
 826 00f2 4FF48070 		mov	r0, #256
 827              	.LVL91:
 828 00f6 38BD     		pop	{r3, r4, r5, pc}
 829              	.LVL92:
 830              	.L56:
1238:Drivers/STM32F1xx_HAL_Driver/Src/stm32f1xx_ll_sdmmc.c ****   }
 831              		.loc 1 1238 0
 832 00f8 4FF40070 		mov	r0, #512
 833              	.LVL93:
 834 00fc 38BD     		pop	{r3, r4, r5, pc}
 835              	.LVL94:
 836              	.L57:
1242:Drivers/STM32F1xx_HAL_Driver/Src/stm32f1xx_ll_sdmmc.c ****   }
 837              		.loc 1 1242 0
 838 00fe 4FF48060 		mov	r0, #1024
 839              	.LVL95:
 840 0102 38BD     		pop	{r3, r4, r5, pc}
 841              	.LVL96:
 842              	.L58:
1246:Drivers/STM32F1xx_HAL_Driver/Src/stm32f1xx_ll_sdmmc.c ****   }
 843              		.loc 1 1246 0
 844 0104 4FF40060 		mov	r0, #2048
 845              	.LVL97:
 846 0108 38BD     		pop	{r3, r4, r5, pc}
 847              	.LVL98:
 848              	.L59:
1250:Drivers/STM32F1xx_HAL_Driver/Src/stm32f1xx_ll_sdmmc.c ****   }
 849              		.loc 1 1250 0
 850 010a 4FF48050 		mov	r0, #4096
 851              	.LVL99:
 852 010e 38BD     		pop	{r3, r4, r5, pc}
 853              	.LVL100:
 854              	.L60:
1254:Drivers/STM32F1xx_HAL_Driver/Src/stm32f1xx_ll_sdmmc.c ****   }
 855              		.loc 1 1254 0
 856 0110 4FF40050 		mov	r0, #8192
 857              	.LVL101:
 858 0114 38BD     		pop	{r3, r4, r5, pc}
 859              	.LVL102:
 860              	.L61:
1258:Drivers/STM32F1xx_HAL_Driver/Src/stm32f1xx_ll_sdmmc.c ****   }
 861              		.loc 1 1258 0
 862 0116 4FF48040 		mov	r0, #16384
 863              	.LVL103:
 864 011a 38BD     		pop	{r3, r4, r5, pc}
 865              	.LVL104:
 866              	.L62:
1262:Drivers/STM32F1xx_HAL_Driver/Src/stm32f1xx_ll_sdmmc.c ****   }
ARM GAS  /tmp/cc3JF8Cu.s 			page 44


 867              		.loc 1 1262 0
 868 011c 4FF40040 		mov	r0, #32768
 869              	.LVL105:
 870 0120 38BD     		pop	{r3, r4, r5, pc}
 871              	.LVL106:
 872              	.L63:
1266:Drivers/STM32F1xx_HAL_Driver/Src/stm32f1xx_ll_sdmmc.c ****   }
 873              		.loc 1 1266 0
 874 0122 4FF40030 		mov	r0, #131072
 875              	.LVL107:
 876 0126 38BD     		pop	{r3, r4, r5, pc}
 877              	.LVL108:
 878              	.L64:
1270:Drivers/STM32F1xx_HAL_Driver/Src/stm32f1xx_ll_sdmmc.c ****   }
 879              		.loc 1 1270 0
 880 0128 4FF48020 		mov	r0, #262144
 881              	.LVL109:
 882 012c 38BD     		pop	{r3, r4, r5, pc}
 883              	.LVL110:
 884              	.L65:
1274:Drivers/STM32F1xx_HAL_Driver/Src/stm32f1xx_ll_sdmmc.c ****   }
 885              		.loc 1 1274 0
 886 012e 4FF40020 		mov	r0, #524288
 887              	.LVL111:
 888 0132 38BD     		pop	{r3, r4, r5, pc}
 889              	.LVL112:
 890              	.L66:
1278:Drivers/STM32F1xx_HAL_Driver/Src/stm32f1xx_ll_sdmmc.c ****   }
 891              		.loc 1 1278 0
 892 0134 4FF48010 		mov	r0, #1048576
 893              	.LVL113:
 894 0138 38BD     		pop	{r3, r4, r5, pc}
 895              	.LVL114:
 896              	.L67:
1282:Drivers/STM32F1xx_HAL_Driver/Src/stm32f1xx_ll_sdmmc.c ****   }
 897              		.loc 1 1282 0
 898 013a 4FF40010 		mov	r0, #2097152
 899              	.LVL115:
 900 013e 38BD     		pop	{r3, r4, r5, pc}
 901              	.LVL116:
 902              	.L68:
1286:Drivers/STM32F1xx_HAL_Driver/Src/stm32f1xx_ll_sdmmc.c ****   }
 903              		.loc 1 1286 0
 904 0140 4FF48000 		mov	r0, #4194304
 905              	.LVL117:
 906 0144 38BD     		pop	{r3, r4, r5, pc}
 907              	.LVL118:
 908              	.L69:
1294:Drivers/STM32F1xx_HAL_Driver/Src/stm32f1xx_ll_sdmmc.c ****   }
 909              		.loc 1 1294 0
 910 0146 4FF48030 		mov	r0, #65536
 911              	.LVL119:
1296:Drivers/STM32F1xx_HAL_Driver/Src/stm32f1xx_ll_sdmmc.c **** 
 912              		.loc 1 1296 0
 913 014a 38BD     		pop	{r3, r4, r5, pc}
 914              	.LVL120:
 915              	.L74:
ARM GAS  /tmp/cc3JF8Cu.s 			page 45


 916              		.align	2
 917              	.L73:
 918 014c 00000000 		.word	SystemCoreClock
 919 0150 D34D6210 		.word	274877907
 920 0154 08E0FFFD 		.word	-33562616
 921              		.cfi_endproc
 922              	.LFE104:
 924              		.section	.text.SDMMC_GetCmdResp6,"ax",%progbits
 925              		.align	1
 926              		.syntax unified
 927              		.thumb
 928              		.thumb_func
 929              		.fpu softvfp
 931              	SDMMC_GetCmdResp6:
 932              	.LFB107:
1388:Drivers/STM32F1xx_HAL_Driver/Src/stm32f1xx_ll_sdmmc.c ****   uint32_t response_r1;
 933              		.loc 1 1388 0
 934              		.cfi_startproc
 935              		@ args = 0, pretend = 0, frame = 0
 936              		@ frame_needed = 0, uses_anonymous_args = 0
 937              	.LVL121:
 938 0000 70B5     		push	{r4, r5, r6, lr}
 939              	.LCFI6:
 940              		.cfi_def_cfa_offset 16
 941              		.cfi_offset 4, -16
 942              		.cfi_offset 5, -12
 943              		.cfi_offset 6, -8
 944              		.cfi_offset 14, -4
1394:Drivers/STM32F1xx_HAL_Driver/Src/stm32f1xx_ll_sdmmc.c ****   
 945              		.loc 1 1394 0
 946 0002 264B     		ldr	r3, .L89
 947 0004 1B68     		ldr	r3, [r3]
 948 0006 264C     		ldr	r4, .L89+4
 949 0008 A4FB0343 		umull	r4, r3, r4, r3
 950 000c 5C0A     		lsrs	r4, r3, #9
 951 000e 41F28833 		movw	r3, #5000
 952 0012 03FB04F3 		mul	r3, r3, r4
 953              	.LVL122:
 954              	.L77:
1398:Drivers/STM32F1xx_HAL_Driver/Src/stm32f1xx_ll_sdmmc.c ****     {
 955              		.loc 1 1398 0
 956 0016 5C1E     		subs	r4, r3, #1
 957              	.LVL123:
 958 0018 002B     		cmp	r3, #0
 959 001a 39D0     		beq	.L81
1402:Drivers/STM32F1xx_HAL_Driver/Src/stm32f1xx_ll_sdmmc.c ****   }while(((sta_reg & (SDIO_FLAG_CCRCFAIL | SDIO_FLAG_CMDREND | SDIO_FLAG_CTIMEOUT)) == 0U) ||
 960              		.loc 1 1402 0
 961 001c 456B     		ldr	r5, [r0, #52]
 962              	.LVL124:
 963 001e 2346     		mov	r3, r4
1404:Drivers/STM32F1xx_HAL_Driver/Src/stm32f1xx_ll_sdmmc.c ****     
 964              		.loc 1 1404 0
 965 0020 15F0450F 		tst	r5, #69
 966 0024 F7D0     		beq	.L77
1403:Drivers/STM32F1xx_HAL_Driver/Src/stm32f1xx_ll_sdmmc.c ****          ((sta_reg & SDIO_FLAG_CMDACT) != 0U ));
 967              		.loc 1 1403 0 discriminator 1
 968 0026 15F4006F 		tst	r5, #2048
ARM GAS  /tmp/cc3JF8Cu.s 			page 46


 969 002a F4D1     		bne	.L77
1406:Drivers/STM32F1xx_HAL_Driver/Src/stm32f1xx_ll_sdmmc.c ****   {
 970              		.loc 1 1406 0
 971 002c 436B     		ldr	r3, [r0, #52]
 972 002e 13F0040F 		tst	r3, #4
 973 0032 03D0     		beq	.L78
1408:Drivers/STM32F1xx_HAL_Driver/Src/stm32f1xx_ll_sdmmc.c ****     
 974              		.loc 1 1408 0
 975 0034 0423     		movs	r3, #4
 976 0036 8363     		str	r3, [r0, #56]
1410:Drivers/STM32F1xx_HAL_Driver/Src/stm32f1xx_ll_sdmmc.c ****   }
 977              		.loc 1 1410 0
 978 0038 1846     		mov	r0, r3
 979              	.LVL125:
 980 003a 70BD     		pop	{r4, r5, r6, pc}
 981              	.LVL126:
 982              	.L78:
1412:Drivers/STM32F1xx_HAL_Driver/Src/stm32f1xx_ll_sdmmc.c ****   {
 983              		.loc 1 1412 0
 984 003c 436B     		ldr	r3, [r0, #52]
 985 003e 13F0010F 		tst	r3, #1
 986 0042 03D0     		beq	.L79
1414:Drivers/STM32F1xx_HAL_Driver/Src/stm32f1xx_ll_sdmmc.c ****     
 987              		.loc 1 1414 0
 988 0044 0123     		movs	r3, #1
 989 0046 8363     		str	r3, [r0, #56]
1416:Drivers/STM32F1xx_HAL_Driver/Src/stm32f1xx_ll_sdmmc.c ****   }
 990              		.loc 1 1416 0
 991 0048 1846     		mov	r0, r3
 992              	.LVL127:
 993 004a 70BD     		pop	{r4, r5, r6, pc}
 994              	.LVL128:
 995              	.L79:
 996 004c 1646     		mov	r6, r2
 997 004e 0D46     		mov	r5, r1
 998              	.LVL129:
 999 0050 0446     		mov	r4, r0
 1000              	.LVL130:
1424:Drivers/STM32F1xx_HAL_Driver/Src/stm32f1xx_ll_sdmmc.c ****   {
 1001              		.loc 1 1424 0
 1002 0052 FFF7FEFF 		bl	SDIO_GetCommandResponse
 1003              	.LVL131:
 1004 0056 A842     		cmp	r0, r5
 1005 0058 01D0     		beq	.L86
1426:Drivers/STM32F1xx_HAL_Driver/Src/stm32f1xx_ll_sdmmc.c ****   }
 1006              		.loc 1 1426 0
 1007 005a 0120     		movs	r0, #1
 1008 005c 70BD     		pop	{r4, r5, r6, pc}
 1009              	.LVL132:
 1010              	.L86:
1430:Drivers/STM32F1xx_HAL_Driver/Src/stm32f1xx_ll_sdmmc.c ****   
 1011              		.loc 1 1430 0
 1012 005e C523     		movs	r3, #197
 1013 0060 A363     		str	r3, [r4, #56]
1433:Drivers/STM32F1xx_HAL_Driver/Src/stm32f1xx_ll_sdmmc.c ****   
 1014              		.loc 1 1433 0
 1015 0062 0021     		movs	r1, #0
ARM GAS  /tmp/cc3JF8Cu.s 			page 47


 1016 0064 2046     		mov	r0, r4
 1017 0066 FFF7FEFF 		bl	SDIO_GetResponse
 1018              	.LVL133:
1435:Drivers/STM32F1xx_HAL_Driver/Src/stm32f1xx_ll_sdmmc.c ****   {
 1019              		.loc 1 1435 0
 1020 006a 10F4604F 		tst	r0, #57344
 1021 006e 05D0     		beq	.L87
1441:Drivers/STM32F1xx_HAL_Driver/Src/stm32f1xx_ll_sdmmc.c ****   {
 1022              		.loc 1 1441 0
 1023 0070 10F4804F 		tst	r0, #16384
 1024 0074 06D0     		beq	.L88
1443:Drivers/STM32F1xx_HAL_Driver/Src/stm32f1xx_ll_sdmmc.c ****   }
 1025              		.loc 1 1443 0
 1026 0076 4FF40050 		mov	r0, #8192
 1027              	.LVL134:
 1028 007a 70BD     		pop	{r4, r5, r6, pc}
 1029              	.LVL135:
 1030              	.L87:
1437:Drivers/STM32F1xx_HAL_Driver/Src/stm32f1xx_ll_sdmmc.c ****     
 1031              		.loc 1 1437 0
 1032 007c 000C     		lsrs	r0, r0, #16
 1033              	.LVL136:
 1034 007e 3080     		strh	r0, [r6]	@ movhi
1439:Drivers/STM32F1xx_HAL_Driver/Src/stm32f1xx_ll_sdmmc.c ****   }
 1035              		.loc 1 1439 0
 1036 0080 0020     		movs	r0, #0
 1037 0082 70BD     		pop	{r4, r5, r6, pc}
 1038              	.LVL137:
 1039              	.L88:
1445:Drivers/STM32F1xx_HAL_Driver/Src/stm32f1xx_ll_sdmmc.c ****   {
 1040              		.loc 1 1445 0
 1041 0084 10F4004F 		tst	r0, #32768
 1042 0088 05D0     		beq	.L84
1447:Drivers/STM32F1xx_HAL_Driver/Src/stm32f1xx_ll_sdmmc.c ****   }
 1043              		.loc 1 1447 0
 1044 008a 4FF48050 		mov	r0, #4096
 1045              	.LVL138:
 1046 008e 70BD     		pop	{r4, r5, r6, pc}
 1047              	.LVL139:
 1048              	.L81:
1400:Drivers/STM32F1xx_HAL_Driver/Src/stm32f1xx_ll_sdmmc.c ****     }
 1049              		.loc 1 1400 0
 1050 0090 4FF00040 		mov	r0, #-2147483648
 1051              	.LVL140:
 1052 0094 70BD     		pop	{r4, r5, r6, pc}
 1053              	.LVL141:
 1054              	.L84:
1451:Drivers/STM32F1xx_HAL_Driver/Src/stm32f1xx_ll_sdmmc.c ****   }
 1055              		.loc 1 1451 0
 1056 0096 4FF48030 		mov	r0, #65536
 1057              	.LVL142:
1453:Drivers/STM32F1xx_HAL_Driver/Src/stm32f1xx_ll_sdmmc.c **** 
 1058              		.loc 1 1453 0
 1059 009a 70BD     		pop	{r4, r5, r6, pc}
 1060              	.LVL143:
 1061              	.L90:
 1062              		.align	2
ARM GAS  /tmp/cc3JF8Cu.s 			page 48


 1063              	.L89:
 1064 009c 00000000 		.word	SystemCoreClock
 1065 00a0 D34D6210 		.word	274877907
 1066              		.cfi_endproc
 1067              	.LFE107:
 1069              		.section	.text.SDIO_ConfigData,"ax",%progbits
 1070              		.align	1
 1071              		.global	SDIO_ConfigData
 1072              		.syntax unified
 1073              		.thumb
 1074              		.thumb_func
 1075              		.fpu softvfp
 1077              	SDIO_ConfigData:
 1078              	.LFB74:
 425:Drivers/STM32F1xx_HAL_Driver/Src/stm32f1xx_ll_sdmmc.c ****   uint32_t tmpreg = 0;
 1079              		.loc 1 425 0
 1080              		.cfi_startproc
 1081              		@ args = 0, pretend = 0, frame = 0
 1082              		@ frame_needed = 0, uses_anonymous_args = 0
 1083              		@ link register save eliminated.
 1084              	.LVL144:
 436:Drivers/STM32F1xx_HAL_Driver/Src/stm32f1xx_ll_sdmmc.c **** 
 1085              		.loc 1 436 0
 1086 0000 0B68     		ldr	r3, [r1]
 1087 0002 4362     		str	r3, [r0, #36]
 439:Drivers/STM32F1xx_HAL_Driver/Src/stm32f1xx_ll_sdmmc.c **** 
 1088              		.loc 1 439 0
 1089 0004 4B68     		ldr	r3, [r1, #4]
 1090 0006 8362     		str	r3, [r0, #40]
 442:Drivers/STM32F1xx_HAL_Driver/Src/stm32f1xx_ll_sdmmc.c ****                        Data->TransferDir   |\
 1091              		.loc 1 442 0
 1092 0008 8B68     		ldr	r3, [r1, #8]
 443:Drivers/STM32F1xx_HAL_Driver/Src/stm32f1xx_ll_sdmmc.c ****                        Data->TransferMode  |\
 1093              		.loc 1 443 0
 1094 000a CA68     		ldr	r2, [r1, #12]
 442:Drivers/STM32F1xx_HAL_Driver/Src/stm32f1xx_ll_sdmmc.c ****                        Data->TransferDir   |\
 1095              		.loc 1 442 0
 1096 000c 1343     		orrs	r3, r3, r2
 444:Drivers/STM32F1xx_HAL_Driver/Src/stm32f1xx_ll_sdmmc.c ****                        Data->DPSM);
 1097              		.loc 1 444 0
 1098 000e 0A69     		ldr	r2, [r1, #16]
 443:Drivers/STM32F1xx_HAL_Driver/Src/stm32f1xx_ll_sdmmc.c ****                        Data->TransferMode  |\
 1099              		.loc 1 443 0
 1100 0010 1343     		orrs	r3, r3, r2
 445:Drivers/STM32F1xx_HAL_Driver/Src/stm32f1xx_ll_sdmmc.c ****   
 1101              		.loc 1 445 0
 1102 0012 4A69     		ldr	r2, [r1, #20]
 444:Drivers/STM32F1xx_HAL_Driver/Src/stm32f1xx_ll_sdmmc.c ****                        Data->DPSM);
 1103              		.loc 1 444 0
 1104 0014 1343     		orrs	r3, r3, r2
 1105              	.LVL145:
 448:Drivers/STM32F1xx_HAL_Driver/Src/stm32f1xx_ll_sdmmc.c **** 
 1106              		.loc 1 448 0
 1107 0016 C26A     		ldr	r2, [r0, #44]
 1108 0018 22F0F702 		bic	r2, r2, #247
 1109 001c 1343     		orrs	r3, r3, r2
 1110              	.LVL146:
ARM GAS  /tmp/cc3JF8Cu.s 			page 49


 1111 001e C362     		str	r3, [r0, #44]
 1112              	.LVL147:
 452:Drivers/STM32F1xx_HAL_Driver/Src/stm32f1xx_ll_sdmmc.c **** 
 1113              		.loc 1 452 0
 1114 0020 0020     		movs	r0, #0
 1115              	.LVL148:
 1116 0022 7047     		bx	lr
 1117              		.cfi_endproc
 1118              	.LFE74:
 1120              		.section	.text.SDIO_GetDataCounter,"ax",%progbits
 1121              		.align	1
 1122              		.global	SDIO_GetDataCounter
 1123              		.syntax unified
 1124              		.thumb
 1125              		.thumb_func
 1126              		.fpu softvfp
 1128              	SDIO_GetDataCounter:
 1129              	.LFB75:
 460:Drivers/STM32F1xx_HAL_Driver/Src/stm32f1xx_ll_sdmmc.c ****   return (SDIOx->DCOUNT);
 1130              		.loc 1 460 0
 1131              		.cfi_startproc
 1132              		@ args = 0, pretend = 0, frame = 0
 1133              		@ frame_needed = 0, uses_anonymous_args = 0
 1134              		@ link register save eliminated.
 1135              	.LVL149:
 461:Drivers/STM32F1xx_HAL_Driver/Src/stm32f1xx_ll_sdmmc.c **** }
 1136              		.loc 1 461 0
 1137 0000 006B     		ldr	r0, [r0, #48]
 1138              	.LVL150:
 462:Drivers/STM32F1xx_HAL_Driver/Src/stm32f1xx_ll_sdmmc.c **** 
 1139              		.loc 1 462 0
 1140 0002 7047     		bx	lr
 1141              		.cfi_endproc
 1142              	.LFE75:
 1144              		.section	.text.SDIO_GetFIFOCount,"ax",%progbits
 1145              		.align	1
 1146              		.global	SDIO_GetFIFOCount
 1147              		.syntax unified
 1148              		.thumb
 1149              		.thumb_func
 1150              		.fpu softvfp
 1152              	SDIO_GetFIFOCount:
 1153              	.LFB76:
 470:Drivers/STM32F1xx_HAL_Driver/Src/stm32f1xx_ll_sdmmc.c ****   return (SDIOx->FIFO);
 1154              		.loc 1 470 0
 1155              		.cfi_startproc
 1156              		@ args = 0, pretend = 0, frame = 0
 1157              		@ frame_needed = 0, uses_anonymous_args = 0
 1158              		@ link register save eliminated.
 1159              	.LVL151:
 471:Drivers/STM32F1xx_HAL_Driver/Src/stm32f1xx_ll_sdmmc.c **** }
 1160              		.loc 1 471 0
 1161 0000 D0F88000 		ldr	r0, [r0, #128]
 1162              	.LVL152:
 472:Drivers/STM32F1xx_HAL_Driver/Src/stm32f1xx_ll_sdmmc.c **** 
 1163              		.loc 1 472 0
 1164 0004 7047     		bx	lr
ARM GAS  /tmp/cc3JF8Cu.s 			page 50


 1165              		.cfi_endproc
 1166              	.LFE76:
 1168              		.section	.text.SDIO_SetSDMMCReadWaitMode,"ax",%progbits
 1169              		.align	1
 1170              		.global	SDIO_SetSDMMCReadWaitMode
 1171              		.syntax unified
 1172              		.thumb
 1173              		.thumb_func
 1174              		.fpu softvfp
 1176              	SDIO_SetSDMMCReadWaitMode:
 1177              	.LFB77:
 484:Drivers/STM32F1xx_HAL_Driver/Src/stm32f1xx_ll_sdmmc.c ****   /* Check the parameters */
 1178              		.loc 1 484 0
 1179              		.cfi_startproc
 1180              		@ args = 0, pretend = 0, frame = 0
 1181              		@ frame_needed = 0, uses_anonymous_args = 0
 1182              		@ link register save eliminated.
 1183              	.LVL153:
 489:Drivers/STM32F1xx_HAL_Driver/Src/stm32f1xx_ll_sdmmc.c ****   
 1184              		.loc 1 489 0
 1185 0000 C36A     		ldr	r3, [r0, #44]
 1186 0002 23F48063 		bic	r3, r3, #1024
 1187 0006 1943     		orrs	r1, r1, r3
 1188              	.LVL154:
 1189 0008 C162     		str	r1, [r0, #44]
 492:Drivers/STM32F1xx_HAL_Driver/Src/stm32f1xx_ll_sdmmc.c **** 
 1190              		.loc 1 492 0
 1191 000a 0020     		movs	r0, #0
 1192              	.LVL155:
 1193 000c 7047     		bx	lr
 1194              		.cfi_endproc
 1195              	.LFE77:
 1197              		.section	.text.SDMMC_CmdBlockLength,"ax",%progbits
 1198              		.align	1
 1199              		.global	SDMMC_CmdBlockLength
 1200              		.syntax unified
 1201              		.thumb
 1202              		.thumb_func
 1203              		.fpu softvfp
 1205              	SDMMC_CmdBlockLength:
 1206              	.LFB78:
 519:Drivers/STM32F1xx_HAL_Driver/Src/stm32f1xx_ll_sdmmc.c ****   SDIO_CmdInitTypeDef  sdmmc_cmdinit;
 1207              		.loc 1 519 0
 1208              		.cfi_startproc
 1209              		@ args = 0, pretend = 0, frame = 24
 1210              		@ frame_needed = 0, uses_anonymous_args = 0
 1211              	.LVL156:
 1212 0000 30B5     		push	{r4, r5, lr}
 1213              	.LCFI7:
 1214              		.cfi_def_cfa_offset 12
 1215              		.cfi_offset 4, -12
 1216              		.cfi_offset 5, -8
 1217              		.cfi_offset 14, -4
 1218 0002 87B0     		sub	sp, sp, #28
 1219              	.LCFI8:
 1220              		.cfi_def_cfa_offset 40
 1221 0004 0546     		mov	r5, r0
ARM GAS  /tmp/cc3JF8Cu.s 			page 51


 524:Drivers/STM32F1xx_HAL_Driver/Src/stm32f1xx_ll_sdmmc.c ****   sdmmc_cmdinit.CmdIndex         = SDMMC_CMD_SET_BLOCKLEN;
 1222              		.loc 1 524 0
 1223 0006 0191     		str	r1, [sp, #4]
 525:Drivers/STM32F1xx_HAL_Driver/Src/stm32f1xx_ll_sdmmc.c ****   sdmmc_cmdinit.Response         = SDIO_RESPONSE_SHORT;
 1224              		.loc 1 525 0
 1225 0008 1024     		movs	r4, #16
 1226 000a 0294     		str	r4, [sp, #8]
 526:Drivers/STM32F1xx_HAL_Driver/Src/stm32f1xx_ll_sdmmc.c ****   sdmmc_cmdinit.WaitForInterrupt = SDIO_WAIT_NO;
 1227              		.loc 1 526 0
 1228 000c 4023     		movs	r3, #64
 1229 000e 0393     		str	r3, [sp, #12]
 527:Drivers/STM32F1xx_HAL_Driver/Src/stm32f1xx_ll_sdmmc.c ****   sdmmc_cmdinit.CPSM             = SDIO_CPSM_ENABLE;
 1230              		.loc 1 527 0
 1231 0010 0023     		movs	r3, #0
 1232 0012 0493     		str	r3, [sp, #16]
 528:Drivers/STM32F1xx_HAL_Driver/Src/stm32f1xx_ll_sdmmc.c ****   (void)SDIO_SendCommand(SDIOx, &sdmmc_cmdinit);
 1233              		.loc 1 528 0
 1234 0014 4FF48063 		mov	r3, #1024
 1235 0018 0593     		str	r3, [sp, #20]
 529:Drivers/STM32F1xx_HAL_Driver/Src/stm32f1xx_ll_sdmmc.c ****   
 1236              		.loc 1 529 0
 1237 001a 01A9     		add	r1, sp, #4
 1238              	.LVL157:
 1239 001c FFF7FEFF 		bl	SDIO_SendCommand
 1240              	.LVL158:
 532:Drivers/STM32F1xx_HAL_Driver/Src/stm32f1xx_ll_sdmmc.c **** 
 1241              		.loc 1 532 0
 1242 0020 41F28832 		movw	r2, #5000
 1243 0024 2146     		mov	r1, r4
 1244 0026 2846     		mov	r0, r5
 1245 0028 FFF7FEFF 		bl	SDMMC_GetCmdResp1
 1246              	.LVL159:
 535:Drivers/STM32F1xx_HAL_Driver/Src/stm32f1xx_ll_sdmmc.c **** 
 1247              		.loc 1 535 0
 1248 002c 07B0     		add	sp, sp, #28
 1249              	.LCFI9:
 1250              		.cfi_def_cfa_offset 12
 1251              		@ sp needed
 1252 002e 30BD     		pop	{r4, r5, pc}
 1253              		.cfi_endproc
 1254              	.LFE78:
 1256              		.section	.text.SDMMC_CmdReadSingleBlock,"ax",%progbits
 1257              		.align	1
 1258              		.global	SDMMC_CmdReadSingleBlock
 1259              		.syntax unified
 1260              		.thumb
 1261              		.thumb_func
 1262              		.fpu softvfp
 1264              	SDMMC_CmdReadSingleBlock:
 1265              	.LFB79:
 543:Drivers/STM32F1xx_HAL_Driver/Src/stm32f1xx_ll_sdmmc.c ****   SDIO_CmdInitTypeDef  sdmmc_cmdinit;
 1266              		.loc 1 543 0
 1267              		.cfi_startproc
 1268              		@ args = 0, pretend = 0, frame = 24
 1269              		@ frame_needed = 0, uses_anonymous_args = 0
 1270              	.LVL160:
 1271 0000 30B5     		push	{r4, r5, lr}
ARM GAS  /tmp/cc3JF8Cu.s 			page 52


 1272              	.LCFI10:
 1273              		.cfi_def_cfa_offset 12
 1274              		.cfi_offset 4, -12
 1275              		.cfi_offset 5, -8
 1276              		.cfi_offset 14, -4
 1277 0002 87B0     		sub	sp, sp, #28
 1278              	.LCFI11:
 1279              		.cfi_def_cfa_offset 40
 1280 0004 0546     		mov	r5, r0
 548:Drivers/STM32F1xx_HAL_Driver/Src/stm32f1xx_ll_sdmmc.c ****   sdmmc_cmdinit.CmdIndex         = SDMMC_CMD_READ_SINGLE_BLOCK;
 1281              		.loc 1 548 0
 1282 0006 0191     		str	r1, [sp, #4]
 549:Drivers/STM32F1xx_HAL_Driver/Src/stm32f1xx_ll_sdmmc.c ****   sdmmc_cmdinit.Response         = SDIO_RESPONSE_SHORT;
 1283              		.loc 1 549 0
 1284 0008 1124     		movs	r4, #17
 1285 000a 0294     		str	r4, [sp, #8]
 550:Drivers/STM32F1xx_HAL_Driver/Src/stm32f1xx_ll_sdmmc.c ****   sdmmc_cmdinit.WaitForInterrupt = SDIO_WAIT_NO;
 1286              		.loc 1 550 0
 1287 000c 4023     		movs	r3, #64
 1288 000e 0393     		str	r3, [sp, #12]
 551:Drivers/STM32F1xx_HAL_Driver/Src/stm32f1xx_ll_sdmmc.c ****   sdmmc_cmdinit.CPSM             = SDIO_CPSM_ENABLE;
 1289              		.loc 1 551 0
 1290 0010 0023     		movs	r3, #0
 1291 0012 0493     		str	r3, [sp, #16]
 552:Drivers/STM32F1xx_HAL_Driver/Src/stm32f1xx_ll_sdmmc.c ****   (void)SDIO_SendCommand(SDIOx, &sdmmc_cmdinit);
 1292              		.loc 1 552 0
 1293 0014 4FF48063 		mov	r3, #1024
 1294 0018 0593     		str	r3, [sp, #20]
 553:Drivers/STM32F1xx_HAL_Driver/Src/stm32f1xx_ll_sdmmc.c ****   
 1295              		.loc 1 553 0
 1296 001a 01A9     		add	r1, sp, #4
 1297              	.LVL161:
 1298 001c FFF7FEFF 		bl	SDIO_SendCommand
 1299              	.LVL162:
 556:Drivers/STM32F1xx_HAL_Driver/Src/stm32f1xx_ll_sdmmc.c **** 
 1300              		.loc 1 556 0
 1301 0020 41F28832 		movw	r2, #5000
 1302 0024 2146     		mov	r1, r4
 1303 0026 2846     		mov	r0, r5
 1304 0028 FFF7FEFF 		bl	SDMMC_GetCmdResp1
 1305              	.LVL163:
 559:Drivers/STM32F1xx_HAL_Driver/Src/stm32f1xx_ll_sdmmc.c **** 
 1306              		.loc 1 559 0
 1307 002c 07B0     		add	sp, sp, #28
 1308              	.LCFI12:
 1309              		.cfi_def_cfa_offset 12
 1310              		@ sp needed
 1311 002e 30BD     		pop	{r4, r5, pc}
 1312              		.cfi_endproc
 1313              	.LFE79:
 1315              		.section	.text.SDMMC_CmdReadMultiBlock,"ax",%progbits
 1316              		.align	1
 1317              		.global	SDMMC_CmdReadMultiBlock
 1318              		.syntax unified
 1319              		.thumb
 1320              		.thumb_func
 1321              		.fpu softvfp
ARM GAS  /tmp/cc3JF8Cu.s 			page 53


 1323              	SDMMC_CmdReadMultiBlock:
 1324              	.LFB80:
 567:Drivers/STM32F1xx_HAL_Driver/Src/stm32f1xx_ll_sdmmc.c ****   SDIO_CmdInitTypeDef  sdmmc_cmdinit;
 1325              		.loc 1 567 0
 1326              		.cfi_startproc
 1327              		@ args = 0, pretend = 0, frame = 24
 1328              		@ frame_needed = 0, uses_anonymous_args = 0
 1329              	.LVL164:
 1330 0000 30B5     		push	{r4, r5, lr}
 1331              	.LCFI13:
 1332              		.cfi_def_cfa_offset 12
 1333              		.cfi_offset 4, -12
 1334              		.cfi_offset 5, -8
 1335              		.cfi_offset 14, -4
 1336 0002 87B0     		sub	sp, sp, #28
 1337              	.LCFI14:
 1338              		.cfi_def_cfa_offset 40
 1339 0004 0546     		mov	r5, r0
 572:Drivers/STM32F1xx_HAL_Driver/Src/stm32f1xx_ll_sdmmc.c ****   sdmmc_cmdinit.CmdIndex         = SDMMC_CMD_READ_MULT_BLOCK;
 1340              		.loc 1 572 0
 1341 0006 0191     		str	r1, [sp, #4]
 573:Drivers/STM32F1xx_HAL_Driver/Src/stm32f1xx_ll_sdmmc.c ****   sdmmc_cmdinit.Response         = SDIO_RESPONSE_SHORT;
 1342              		.loc 1 573 0
 1343 0008 1224     		movs	r4, #18
 1344 000a 0294     		str	r4, [sp, #8]
 574:Drivers/STM32F1xx_HAL_Driver/Src/stm32f1xx_ll_sdmmc.c ****   sdmmc_cmdinit.WaitForInterrupt = SDIO_WAIT_NO;
 1345              		.loc 1 574 0
 1346 000c 4023     		movs	r3, #64
 1347 000e 0393     		str	r3, [sp, #12]
 575:Drivers/STM32F1xx_HAL_Driver/Src/stm32f1xx_ll_sdmmc.c ****   sdmmc_cmdinit.CPSM             = SDIO_CPSM_ENABLE;
 1348              		.loc 1 575 0
 1349 0010 0023     		movs	r3, #0
 1350 0012 0493     		str	r3, [sp, #16]
 576:Drivers/STM32F1xx_HAL_Driver/Src/stm32f1xx_ll_sdmmc.c ****   (void)SDIO_SendCommand(SDIOx, &sdmmc_cmdinit);
 1351              		.loc 1 576 0
 1352 0014 4FF48063 		mov	r3, #1024
 1353 0018 0593     		str	r3, [sp, #20]
 577:Drivers/STM32F1xx_HAL_Driver/Src/stm32f1xx_ll_sdmmc.c ****   
 1354              		.loc 1 577 0
 1355 001a 01A9     		add	r1, sp, #4
 1356              	.LVL165:
 1357 001c FFF7FEFF 		bl	SDIO_SendCommand
 1358              	.LVL166:
 580:Drivers/STM32F1xx_HAL_Driver/Src/stm32f1xx_ll_sdmmc.c **** 
 1359              		.loc 1 580 0
 1360 0020 41F28832 		movw	r2, #5000
 1361 0024 2146     		mov	r1, r4
 1362 0026 2846     		mov	r0, r5
 1363 0028 FFF7FEFF 		bl	SDMMC_GetCmdResp1
 1364              	.LVL167:
 583:Drivers/STM32F1xx_HAL_Driver/Src/stm32f1xx_ll_sdmmc.c **** 
 1365              		.loc 1 583 0
 1366 002c 07B0     		add	sp, sp, #28
 1367              	.LCFI15:
 1368              		.cfi_def_cfa_offset 12
 1369              		@ sp needed
 1370 002e 30BD     		pop	{r4, r5, pc}
ARM GAS  /tmp/cc3JF8Cu.s 			page 54


 1371              		.cfi_endproc
 1372              	.LFE80:
 1374              		.section	.text.SDMMC_CmdWriteSingleBlock,"ax",%progbits
 1375              		.align	1
 1376              		.global	SDMMC_CmdWriteSingleBlock
 1377              		.syntax unified
 1378              		.thumb
 1379              		.thumb_func
 1380              		.fpu softvfp
 1382              	SDMMC_CmdWriteSingleBlock:
 1383              	.LFB81:
 591:Drivers/STM32F1xx_HAL_Driver/Src/stm32f1xx_ll_sdmmc.c ****   SDIO_CmdInitTypeDef  sdmmc_cmdinit;
 1384              		.loc 1 591 0
 1385              		.cfi_startproc
 1386              		@ args = 0, pretend = 0, frame = 24
 1387              		@ frame_needed = 0, uses_anonymous_args = 0
 1388              	.LVL168:
 1389 0000 30B5     		push	{r4, r5, lr}
 1390              	.LCFI16:
 1391              		.cfi_def_cfa_offset 12
 1392              		.cfi_offset 4, -12
 1393              		.cfi_offset 5, -8
 1394              		.cfi_offset 14, -4
 1395 0002 87B0     		sub	sp, sp, #28
 1396              	.LCFI17:
 1397              		.cfi_def_cfa_offset 40
 1398 0004 0546     		mov	r5, r0
 596:Drivers/STM32F1xx_HAL_Driver/Src/stm32f1xx_ll_sdmmc.c ****   sdmmc_cmdinit.CmdIndex         = SDMMC_CMD_WRITE_SINGLE_BLOCK;
 1399              		.loc 1 596 0
 1400 0006 0191     		str	r1, [sp, #4]
 597:Drivers/STM32F1xx_HAL_Driver/Src/stm32f1xx_ll_sdmmc.c ****   sdmmc_cmdinit.Response         = SDIO_RESPONSE_SHORT;
 1401              		.loc 1 597 0
 1402 0008 1824     		movs	r4, #24
 1403 000a 0294     		str	r4, [sp, #8]
 598:Drivers/STM32F1xx_HAL_Driver/Src/stm32f1xx_ll_sdmmc.c ****   sdmmc_cmdinit.WaitForInterrupt = SDIO_WAIT_NO;
 1404              		.loc 1 598 0
 1405 000c 4023     		movs	r3, #64
 1406 000e 0393     		str	r3, [sp, #12]
 599:Drivers/STM32F1xx_HAL_Driver/Src/stm32f1xx_ll_sdmmc.c ****   sdmmc_cmdinit.CPSM             = SDIO_CPSM_ENABLE;
 1407              		.loc 1 599 0
 1408 0010 0023     		movs	r3, #0
 1409 0012 0493     		str	r3, [sp, #16]
 600:Drivers/STM32F1xx_HAL_Driver/Src/stm32f1xx_ll_sdmmc.c ****   (void)SDIO_SendCommand(SDIOx, &sdmmc_cmdinit);
 1410              		.loc 1 600 0
 1411 0014 4FF48063 		mov	r3, #1024
 1412 0018 0593     		str	r3, [sp, #20]
 601:Drivers/STM32F1xx_HAL_Driver/Src/stm32f1xx_ll_sdmmc.c ****   
 1413              		.loc 1 601 0
 1414 001a 01A9     		add	r1, sp, #4
 1415              	.LVL169:
 1416 001c FFF7FEFF 		bl	SDIO_SendCommand
 1417              	.LVL170:
 604:Drivers/STM32F1xx_HAL_Driver/Src/stm32f1xx_ll_sdmmc.c **** 
 1418              		.loc 1 604 0
 1419 0020 41F28832 		movw	r2, #5000
 1420 0024 2146     		mov	r1, r4
 1421 0026 2846     		mov	r0, r5
ARM GAS  /tmp/cc3JF8Cu.s 			page 55


 1422 0028 FFF7FEFF 		bl	SDMMC_GetCmdResp1
 1423              	.LVL171:
 607:Drivers/STM32F1xx_HAL_Driver/Src/stm32f1xx_ll_sdmmc.c **** 
 1424              		.loc 1 607 0
 1425 002c 07B0     		add	sp, sp, #28
 1426              	.LCFI18:
 1427              		.cfi_def_cfa_offset 12
 1428              		@ sp needed
 1429 002e 30BD     		pop	{r4, r5, pc}
 1430              		.cfi_endproc
 1431              	.LFE81:
 1433              		.section	.text.SDMMC_CmdWriteMultiBlock,"ax",%progbits
 1434              		.align	1
 1435              		.global	SDMMC_CmdWriteMultiBlock
 1436              		.syntax unified
 1437              		.thumb
 1438              		.thumb_func
 1439              		.fpu softvfp
 1441              	SDMMC_CmdWriteMultiBlock:
 1442              	.LFB82:
 615:Drivers/STM32F1xx_HAL_Driver/Src/stm32f1xx_ll_sdmmc.c ****   SDIO_CmdInitTypeDef  sdmmc_cmdinit;
 1443              		.loc 1 615 0
 1444              		.cfi_startproc
 1445              		@ args = 0, pretend = 0, frame = 24
 1446              		@ frame_needed = 0, uses_anonymous_args = 0
 1447              	.LVL172:
 1448 0000 30B5     		push	{r4, r5, lr}
 1449              	.LCFI19:
 1450              		.cfi_def_cfa_offset 12
 1451              		.cfi_offset 4, -12
 1452              		.cfi_offset 5, -8
 1453              		.cfi_offset 14, -4
 1454 0002 87B0     		sub	sp, sp, #28
 1455              	.LCFI20:
 1456              		.cfi_def_cfa_offset 40
 1457 0004 0546     		mov	r5, r0
 620:Drivers/STM32F1xx_HAL_Driver/Src/stm32f1xx_ll_sdmmc.c ****   sdmmc_cmdinit.CmdIndex         = SDMMC_CMD_WRITE_MULT_BLOCK;
 1458              		.loc 1 620 0
 1459 0006 0191     		str	r1, [sp, #4]
 621:Drivers/STM32F1xx_HAL_Driver/Src/stm32f1xx_ll_sdmmc.c ****   sdmmc_cmdinit.Response         = SDIO_RESPONSE_SHORT;
 1460              		.loc 1 621 0
 1461 0008 1924     		movs	r4, #25
 1462 000a 0294     		str	r4, [sp, #8]
 622:Drivers/STM32F1xx_HAL_Driver/Src/stm32f1xx_ll_sdmmc.c ****   sdmmc_cmdinit.WaitForInterrupt = SDIO_WAIT_NO;
 1463              		.loc 1 622 0
 1464 000c 4023     		movs	r3, #64
 1465 000e 0393     		str	r3, [sp, #12]
 623:Drivers/STM32F1xx_HAL_Driver/Src/stm32f1xx_ll_sdmmc.c ****   sdmmc_cmdinit.CPSM             = SDIO_CPSM_ENABLE;
 1466              		.loc 1 623 0
 1467 0010 0023     		movs	r3, #0
 1468 0012 0493     		str	r3, [sp, #16]
 624:Drivers/STM32F1xx_HAL_Driver/Src/stm32f1xx_ll_sdmmc.c ****   (void)SDIO_SendCommand(SDIOx, &sdmmc_cmdinit);
 1469              		.loc 1 624 0
 1470 0014 4FF48063 		mov	r3, #1024
 1471 0018 0593     		str	r3, [sp, #20]
 625:Drivers/STM32F1xx_HAL_Driver/Src/stm32f1xx_ll_sdmmc.c ****   
 1472              		.loc 1 625 0
ARM GAS  /tmp/cc3JF8Cu.s 			page 56


 1473 001a 01A9     		add	r1, sp, #4
 1474              	.LVL173:
 1475 001c FFF7FEFF 		bl	SDIO_SendCommand
 1476              	.LVL174:
 628:Drivers/STM32F1xx_HAL_Driver/Src/stm32f1xx_ll_sdmmc.c **** 
 1477              		.loc 1 628 0
 1478 0020 41F28832 		movw	r2, #5000
 1479 0024 2146     		mov	r1, r4
 1480 0026 2846     		mov	r0, r5
 1481 0028 FFF7FEFF 		bl	SDMMC_GetCmdResp1
 1482              	.LVL175:
 631:Drivers/STM32F1xx_HAL_Driver/Src/stm32f1xx_ll_sdmmc.c **** 
 1483              		.loc 1 631 0
 1484 002c 07B0     		add	sp, sp, #28
 1485              	.LCFI21:
 1486              		.cfi_def_cfa_offset 12
 1487              		@ sp needed
 1488 002e 30BD     		pop	{r4, r5, pc}
 1489              		.cfi_endproc
 1490              	.LFE82:
 1492              		.section	.text.SDMMC_CmdSDEraseStartAdd,"ax",%progbits
 1493              		.align	1
 1494              		.global	SDMMC_CmdSDEraseStartAdd
 1495              		.syntax unified
 1496              		.thumb
 1497              		.thumb_func
 1498              		.fpu softvfp
 1500              	SDMMC_CmdSDEraseStartAdd:
 1501              	.LFB83:
 639:Drivers/STM32F1xx_HAL_Driver/Src/stm32f1xx_ll_sdmmc.c ****   SDIO_CmdInitTypeDef  sdmmc_cmdinit;
 1502              		.loc 1 639 0
 1503              		.cfi_startproc
 1504              		@ args = 0, pretend = 0, frame = 24
 1505              		@ frame_needed = 0, uses_anonymous_args = 0
 1506              	.LVL176:
 1507 0000 30B5     		push	{r4, r5, lr}
 1508              	.LCFI22:
 1509              		.cfi_def_cfa_offset 12
 1510              		.cfi_offset 4, -12
 1511              		.cfi_offset 5, -8
 1512              		.cfi_offset 14, -4
 1513 0002 87B0     		sub	sp, sp, #28
 1514              	.LCFI23:
 1515              		.cfi_def_cfa_offset 40
 1516 0004 0546     		mov	r5, r0
 644:Drivers/STM32F1xx_HAL_Driver/Src/stm32f1xx_ll_sdmmc.c ****   sdmmc_cmdinit.CmdIndex         = SDMMC_CMD_SD_ERASE_GRP_START;
 1517              		.loc 1 644 0
 1518 0006 0191     		str	r1, [sp, #4]
 645:Drivers/STM32F1xx_HAL_Driver/Src/stm32f1xx_ll_sdmmc.c ****   sdmmc_cmdinit.Response         = SDIO_RESPONSE_SHORT;
 1519              		.loc 1 645 0
 1520 0008 2024     		movs	r4, #32
 1521 000a 0294     		str	r4, [sp, #8]
 646:Drivers/STM32F1xx_HAL_Driver/Src/stm32f1xx_ll_sdmmc.c ****   sdmmc_cmdinit.WaitForInterrupt = SDIO_WAIT_NO;
 1522              		.loc 1 646 0
 1523 000c 4023     		movs	r3, #64
 1524 000e 0393     		str	r3, [sp, #12]
 647:Drivers/STM32F1xx_HAL_Driver/Src/stm32f1xx_ll_sdmmc.c ****   sdmmc_cmdinit.CPSM             = SDIO_CPSM_ENABLE;
ARM GAS  /tmp/cc3JF8Cu.s 			page 57


 1525              		.loc 1 647 0
 1526 0010 0023     		movs	r3, #0
 1527 0012 0493     		str	r3, [sp, #16]
 648:Drivers/STM32F1xx_HAL_Driver/Src/stm32f1xx_ll_sdmmc.c ****   (void)SDIO_SendCommand(SDIOx, &sdmmc_cmdinit);
 1528              		.loc 1 648 0
 1529 0014 4FF48063 		mov	r3, #1024
 1530 0018 0593     		str	r3, [sp, #20]
 649:Drivers/STM32F1xx_HAL_Driver/Src/stm32f1xx_ll_sdmmc.c ****   
 1531              		.loc 1 649 0
 1532 001a 01A9     		add	r1, sp, #4
 1533              	.LVL177:
 1534 001c FFF7FEFF 		bl	SDIO_SendCommand
 1535              	.LVL178:
 652:Drivers/STM32F1xx_HAL_Driver/Src/stm32f1xx_ll_sdmmc.c **** 
 1536              		.loc 1 652 0
 1537 0020 41F28832 		movw	r2, #5000
 1538 0024 2146     		mov	r1, r4
 1539 0026 2846     		mov	r0, r5
 1540 0028 FFF7FEFF 		bl	SDMMC_GetCmdResp1
 1541              	.LVL179:
 655:Drivers/STM32F1xx_HAL_Driver/Src/stm32f1xx_ll_sdmmc.c **** 
 1542              		.loc 1 655 0
 1543 002c 07B0     		add	sp, sp, #28
 1544              	.LCFI24:
 1545              		.cfi_def_cfa_offset 12
 1546              		@ sp needed
 1547 002e 30BD     		pop	{r4, r5, pc}
 1548              		.cfi_endproc
 1549              	.LFE83:
 1551              		.section	.text.SDMMC_CmdSDEraseEndAdd,"ax",%progbits
 1552              		.align	1
 1553              		.global	SDMMC_CmdSDEraseEndAdd
 1554              		.syntax unified
 1555              		.thumb
 1556              		.thumb_func
 1557              		.fpu softvfp
 1559              	SDMMC_CmdSDEraseEndAdd:
 1560              	.LFB84:
 663:Drivers/STM32F1xx_HAL_Driver/Src/stm32f1xx_ll_sdmmc.c ****   SDIO_CmdInitTypeDef  sdmmc_cmdinit;
 1561              		.loc 1 663 0
 1562              		.cfi_startproc
 1563              		@ args = 0, pretend = 0, frame = 24
 1564              		@ frame_needed = 0, uses_anonymous_args = 0
 1565              	.LVL180:
 1566 0000 30B5     		push	{r4, r5, lr}
 1567              	.LCFI25:
 1568              		.cfi_def_cfa_offset 12
 1569              		.cfi_offset 4, -12
 1570              		.cfi_offset 5, -8
 1571              		.cfi_offset 14, -4
 1572 0002 87B0     		sub	sp, sp, #28
 1573              	.LCFI26:
 1574              		.cfi_def_cfa_offset 40
 1575 0004 0546     		mov	r5, r0
 668:Drivers/STM32F1xx_HAL_Driver/Src/stm32f1xx_ll_sdmmc.c ****   sdmmc_cmdinit.CmdIndex         = SDMMC_CMD_SD_ERASE_GRP_END;
 1576              		.loc 1 668 0
 1577 0006 0191     		str	r1, [sp, #4]
ARM GAS  /tmp/cc3JF8Cu.s 			page 58


 669:Drivers/STM32F1xx_HAL_Driver/Src/stm32f1xx_ll_sdmmc.c ****   sdmmc_cmdinit.Response         = SDIO_RESPONSE_SHORT;
 1578              		.loc 1 669 0
 1579 0008 2124     		movs	r4, #33
 1580 000a 0294     		str	r4, [sp, #8]
 670:Drivers/STM32F1xx_HAL_Driver/Src/stm32f1xx_ll_sdmmc.c ****   sdmmc_cmdinit.WaitForInterrupt = SDIO_WAIT_NO;
 1581              		.loc 1 670 0
 1582 000c 4023     		movs	r3, #64
 1583 000e 0393     		str	r3, [sp, #12]
 671:Drivers/STM32F1xx_HAL_Driver/Src/stm32f1xx_ll_sdmmc.c ****   sdmmc_cmdinit.CPSM             = SDIO_CPSM_ENABLE;
 1584              		.loc 1 671 0
 1585 0010 0023     		movs	r3, #0
 1586 0012 0493     		str	r3, [sp, #16]
 672:Drivers/STM32F1xx_HAL_Driver/Src/stm32f1xx_ll_sdmmc.c ****   (void)SDIO_SendCommand(SDIOx, &sdmmc_cmdinit);
 1587              		.loc 1 672 0
 1588 0014 4FF48063 		mov	r3, #1024
 1589 0018 0593     		str	r3, [sp, #20]
 673:Drivers/STM32F1xx_HAL_Driver/Src/stm32f1xx_ll_sdmmc.c ****   
 1590              		.loc 1 673 0
 1591 001a 01A9     		add	r1, sp, #4
 1592              	.LVL181:
 1593 001c FFF7FEFF 		bl	SDIO_SendCommand
 1594              	.LVL182:
 676:Drivers/STM32F1xx_HAL_Driver/Src/stm32f1xx_ll_sdmmc.c **** 
 1595              		.loc 1 676 0
 1596 0020 41F28832 		movw	r2, #5000
 1597 0024 2146     		mov	r1, r4
 1598 0026 2846     		mov	r0, r5
 1599 0028 FFF7FEFF 		bl	SDMMC_GetCmdResp1
 1600              	.LVL183:
 679:Drivers/STM32F1xx_HAL_Driver/Src/stm32f1xx_ll_sdmmc.c **** 
 1601              		.loc 1 679 0
 1602 002c 07B0     		add	sp, sp, #28
 1603              	.LCFI27:
 1604              		.cfi_def_cfa_offset 12
 1605              		@ sp needed
 1606 002e 30BD     		pop	{r4, r5, pc}
 1607              		.cfi_endproc
 1608              	.LFE84:
 1610              		.section	.text.SDMMC_CmdEraseStartAdd,"ax",%progbits
 1611              		.align	1
 1612              		.global	SDMMC_CmdEraseStartAdd
 1613              		.syntax unified
 1614              		.thumb
 1615              		.thumb_func
 1616              		.fpu softvfp
 1618              	SDMMC_CmdEraseStartAdd:
 1619              	.LFB85:
 687:Drivers/STM32F1xx_HAL_Driver/Src/stm32f1xx_ll_sdmmc.c ****   SDIO_CmdInitTypeDef  sdmmc_cmdinit;
 1620              		.loc 1 687 0
 1621              		.cfi_startproc
 1622              		@ args = 0, pretend = 0, frame = 24
 1623              		@ frame_needed = 0, uses_anonymous_args = 0
 1624              	.LVL184:
 1625 0000 30B5     		push	{r4, r5, lr}
 1626              	.LCFI28:
 1627              		.cfi_def_cfa_offset 12
 1628              		.cfi_offset 4, -12
ARM GAS  /tmp/cc3JF8Cu.s 			page 59


 1629              		.cfi_offset 5, -8
 1630              		.cfi_offset 14, -4
 1631 0002 87B0     		sub	sp, sp, #28
 1632              	.LCFI29:
 1633              		.cfi_def_cfa_offset 40
 1634 0004 0546     		mov	r5, r0
 692:Drivers/STM32F1xx_HAL_Driver/Src/stm32f1xx_ll_sdmmc.c ****   sdmmc_cmdinit.CmdIndex         = SDMMC_CMD_ERASE_GRP_START;
 1635              		.loc 1 692 0
 1636 0006 0191     		str	r1, [sp, #4]
 693:Drivers/STM32F1xx_HAL_Driver/Src/stm32f1xx_ll_sdmmc.c ****   sdmmc_cmdinit.Response         = SDIO_RESPONSE_SHORT;
 1637              		.loc 1 693 0
 1638 0008 2324     		movs	r4, #35
 1639 000a 0294     		str	r4, [sp, #8]
 694:Drivers/STM32F1xx_HAL_Driver/Src/stm32f1xx_ll_sdmmc.c ****   sdmmc_cmdinit.WaitForInterrupt = SDIO_WAIT_NO;
 1640              		.loc 1 694 0
 1641 000c 4023     		movs	r3, #64
 1642 000e 0393     		str	r3, [sp, #12]
 695:Drivers/STM32F1xx_HAL_Driver/Src/stm32f1xx_ll_sdmmc.c ****   sdmmc_cmdinit.CPSM             = SDIO_CPSM_ENABLE;
 1643              		.loc 1 695 0
 1644 0010 0023     		movs	r3, #0
 1645 0012 0493     		str	r3, [sp, #16]
 696:Drivers/STM32F1xx_HAL_Driver/Src/stm32f1xx_ll_sdmmc.c ****   (void)SDIO_SendCommand(SDIOx, &sdmmc_cmdinit);
 1646              		.loc 1 696 0
 1647 0014 4FF48063 		mov	r3, #1024
 1648 0018 0593     		str	r3, [sp, #20]
 697:Drivers/STM32F1xx_HAL_Driver/Src/stm32f1xx_ll_sdmmc.c ****   
 1649              		.loc 1 697 0
 1650 001a 01A9     		add	r1, sp, #4
 1651              	.LVL185:
 1652 001c FFF7FEFF 		bl	SDIO_SendCommand
 1653              	.LVL186:
 700:Drivers/STM32F1xx_HAL_Driver/Src/stm32f1xx_ll_sdmmc.c **** 
 1654              		.loc 1 700 0
 1655 0020 41F28832 		movw	r2, #5000
 1656 0024 2146     		mov	r1, r4
 1657 0026 2846     		mov	r0, r5
 1658 0028 FFF7FEFF 		bl	SDMMC_GetCmdResp1
 1659              	.LVL187:
 703:Drivers/STM32F1xx_HAL_Driver/Src/stm32f1xx_ll_sdmmc.c **** 
 1660              		.loc 1 703 0
 1661 002c 07B0     		add	sp, sp, #28
 1662              	.LCFI30:
 1663              		.cfi_def_cfa_offset 12
 1664              		@ sp needed
 1665 002e 30BD     		pop	{r4, r5, pc}
 1666              		.cfi_endproc
 1667              	.LFE85:
 1669              		.section	.text.SDMMC_CmdEraseEndAdd,"ax",%progbits
 1670              		.align	1
 1671              		.global	SDMMC_CmdEraseEndAdd
 1672              		.syntax unified
 1673              		.thumb
 1674              		.thumb_func
 1675              		.fpu softvfp
 1677              	SDMMC_CmdEraseEndAdd:
 1678              	.LFB86:
 711:Drivers/STM32F1xx_HAL_Driver/Src/stm32f1xx_ll_sdmmc.c ****   SDIO_CmdInitTypeDef  sdmmc_cmdinit;
ARM GAS  /tmp/cc3JF8Cu.s 			page 60


 1679              		.loc 1 711 0
 1680              		.cfi_startproc
 1681              		@ args = 0, pretend = 0, frame = 24
 1682              		@ frame_needed = 0, uses_anonymous_args = 0
 1683              	.LVL188:
 1684 0000 30B5     		push	{r4, r5, lr}
 1685              	.LCFI31:
 1686              		.cfi_def_cfa_offset 12
 1687              		.cfi_offset 4, -12
 1688              		.cfi_offset 5, -8
 1689              		.cfi_offset 14, -4
 1690 0002 87B0     		sub	sp, sp, #28
 1691              	.LCFI32:
 1692              		.cfi_def_cfa_offset 40
 1693 0004 0546     		mov	r5, r0
 716:Drivers/STM32F1xx_HAL_Driver/Src/stm32f1xx_ll_sdmmc.c ****   sdmmc_cmdinit.CmdIndex         = SDMMC_CMD_ERASE_GRP_END;
 1694              		.loc 1 716 0
 1695 0006 0191     		str	r1, [sp, #4]
 717:Drivers/STM32F1xx_HAL_Driver/Src/stm32f1xx_ll_sdmmc.c ****   sdmmc_cmdinit.Response         = SDIO_RESPONSE_SHORT;
 1696              		.loc 1 717 0
 1697 0008 2424     		movs	r4, #36
 1698 000a 0294     		str	r4, [sp, #8]
 718:Drivers/STM32F1xx_HAL_Driver/Src/stm32f1xx_ll_sdmmc.c ****   sdmmc_cmdinit.WaitForInterrupt = SDIO_WAIT_NO;
 1699              		.loc 1 718 0
 1700 000c 4023     		movs	r3, #64
 1701 000e 0393     		str	r3, [sp, #12]
 719:Drivers/STM32F1xx_HAL_Driver/Src/stm32f1xx_ll_sdmmc.c ****   sdmmc_cmdinit.CPSM             = SDIO_CPSM_ENABLE;
 1702              		.loc 1 719 0
 1703 0010 0023     		movs	r3, #0
 1704 0012 0493     		str	r3, [sp, #16]
 720:Drivers/STM32F1xx_HAL_Driver/Src/stm32f1xx_ll_sdmmc.c ****   (void)SDIO_SendCommand(SDIOx, &sdmmc_cmdinit);
 1705              		.loc 1 720 0
 1706 0014 4FF48063 		mov	r3, #1024
 1707 0018 0593     		str	r3, [sp, #20]
 721:Drivers/STM32F1xx_HAL_Driver/Src/stm32f1xx_ll_sdmmc.c ****   
 1708              		.loc 1 721 0
 1709 001a 01A9     		add	r1, sp, #4
 1710              	.LVL189:
 1711 001c FFF7FEFF 		bl	SDIO_SendCommand
 1712              	.LVL190:
 724:Drivers/STM32F1xx_HAL_Driver/Src/stm32f1xx_ll_sdmmc.c **** 
 1713              		.loc 1 724 0
 1714 0020 41F28832 		movw	r2, #5000
 1715 0024 2146     		mov	r1, r4
 1716 0026 2846     		mov	r0, r5
 1717 0028 FFF7FEFF 		bl	SDMMC_GetCmdResp1
 1718              	.LVL191:
 727:Drivers/STM32F1xx_HAL_Driver/Src/stm32f1xx_ll_sdmmc.c **** 
 1719              		.loc 1 727 0
 1720 002c 07B0     		add	sp, sp, #28
 1721              	.LCFI33:
 1722              		.cfi_def_cfa_offset 12
 1723              		@ sp needed
 1724 002e 30BD     		pop	{r4, r5, pc}
 1725              		.cfi_endproc
 1726              	.LFE86:
 1728              		.section	.text.SDMMC_CmdErase,"ax",%progbits
ARM GAS  /tmp/cc3JF8Cu.s 			page 61


 1729              		.align	1
 1730              		.global	SDMMC_CmdErase
 1731              		.syntax unified
 1732              		.thumb
 1733              		.thumb_func
 1734              		.fpu softvfp
 1736              	SDMMC_CmdErase:
 1737              	.LFB87:
 735:Drivers/STM32F1xx_HAL_Driver/Src/stm32f1xx_ll_sdmmc.c ****   SDIO_CmdInitTypeDef  sdmmc_cmdinit;
 1738              		.loc 1 735 0
 1739              		.cfi_startproc
 1740              		@ args = 0, pretend = 0, frame = 24
 1741              		@ frame_needed = 0, uses_anonymous_args = 0
 1742              	.LVL192:
 1743 0000 30B5     		push	{r4, r5, lr}
 1744              	.LCFI34:
 1745              		.cfi_def_cfa_offset 12
 1746              		.cfi_offset 4, -12
 1747              		.cfi_offset 5, -8
 1748              		.cfi_offset 14, -4
 1749 0002 87B0     		sub	sp, sp, #28
 1750              	.LCFI35:
 1751              		.cfi_def_cfa_offset 40
 1752 0004 0546     		mov	r5, r0
 740:Drivers/STM32F1xx_HAL_Driver/Src/stm32f1xx_ll_sdmmc.c ****   sdmmc_cmdinit.CmdIndex         = SDMMC_CMD_ERASE;
 1753              		.loc 1 740 0
 1754 0006 0023     		movs	r3, #0
 1755 0008 0193     		str	r3, [sp, #4]
 741:Drivers/STM32F1xx_HAL_Driver/Src/stm32f1xx_ll_sdmmc.c ****   sdmmc_cmdinit.Response         = SDIO_RESPONSE_SHORT;
 1756              		.loc 1 741 0
 1757 000a 2624     		movs	r4, #38
 1758 000c 0294     		str	r4, [sp, #8]
 742:Drivers/STM32F1xx_HAL_Driver/Src/stm32f1xx_ll_sdmmc.c ****   sdmmc_cmdinit.WaitForInterrupt = SDIO_WAIT_NO;
 1759              		.loc 1 742 0
 1760 000e 4022     		movs	r2, #64
 1761 0010 0392     		str	r2, [sp, #12]
 743:Drivers/STM32F1xx_HAL_Driver/Src/stm32f1xx_ll_sdmmc.c ****   sdmmc_cmdinit.CPSM             = SDIO_CPSM_ENABLE;
 1762              		.loc 1 743 0
 1763 0012 0493     		str	r3, [sp, #16]
 744:Drivers/STM32F1xx_HAL_Driver/Src/stm32f1xx_ll_sdmmc.c ****   (void)SDIO_SendCommand(SDIOx, &sdmmc_cmdinit);
 1764              		.loc 1 744 0
 1765 0014 4FF48063 		mov	r3, #1024
 1766 0018 0593     		str	r3, [sp, #20]
 745:Drivers/STM32F1xx_HAL_Driver/Src/stm32f1xx_ll_sdmmc.c ****   
 1767              		.loc 1 745 0
 1768 001a 01A9     		add	r1, sp, #4
 1769 001c FFF7FEFF 		bl	SDIO_SendCommand
 1770              	.LVL193:
 748:Drivers/STM32F1xx_HAL_Driver/Src/stm32f1xx_ll_sdmmc.c **** 
 1771              		.loc 1 748 0
 1772 0020 4FF21862 		movw	r2, #63000
 1773 0024 2146     		mov	r1, r4
 1774 0026 2846     		mov	r0, r5
 1775 0028 FFF7FEFF 		bl	SDMMC_GetCmdResp1
 1776              	.LVL194:
 751:Drivers/STM32F1xx_HAL_Driver/Src/stm32f1xx_ll_sdmmc.c **** 
 1777              		.loc 1 751 0
ARM GAS  /tmp/cc3JF8Cu.s 			page 62


 1778 002c 07B0     		add	sp, sp, #28
 1779              	.LCFI36:
 1780              		.cfi_def_cfa_offset 12
 1781              		@ sp needed
 1782 002e 30BD     		pop	{r4, r5, pc}
 1783              		.cfi_endproc
 1784              	.LFE87:
 1786              		.section	.text.SDMMC_CmdStopTransfer,"ax",%progbits
 1787              		.align	1
 1788              		.global	SDMMC_CmdStopTransfer
 1789              		.syntax unified
 1790              		.thumb
 1791              		.thumb_func
 1792              		.fpu softvfp
 1794              	SDMMC_CmdStopTransfer:
 1795              	.LFB88:
 759:Drivers/STM32F1xx_HAL_Driver/Src/stm32f1xx_ll_sdmmc.c ****   SDIO_CmdInitTypeDef  sdmmc_cmdinit;
 1796              		.loc 1 759 0
 1797              		.cfi_startproc
 1798              		@ args = 0, pretend = 0, frame = 24
 1799              		@ frame_needed = 0, uses_anonymous_args = 0
 1800              	.LVL195:
 1801 0000 30B5     		push	{r4, r5, lr}
 1802              	.LCFI37:
 1803              		.cfi_def_cfa_offset 12
 1804              		.cfi_offset 4, -12
 1805              		.cfi_offset 5, -8
 1806              		.cfi_offset 14, -4
 1807 0002 87B0     		sub	sp, sp, #28
 1808              	.LCFI38:
 1809              		.cfi_def_cfa_offset 40
 1810 0004 0546     		mov	r5, r0
 764:Drivers/STM32F1xx_HAL_Driver/Src/stm32f1xx_ll_sdmmc.c ****   sdmmc_cmdinit.CmdIndex         = SDMMC_CMD_STOP_TRANSMISSION;
 1811              		.loc 1 764 0
 1812 0006 0023     		movs	r3, #0
 1813 0008 0193     		str	r3, [sp, #4]
 765:Drivers/STM32F1xx_HAL_Driver/Src/stm32f1xx_ll_sdmmc.c ****   sdmmc_cmdinit.Response         = SDIO_RESPONSE_SHORT;
 1814              		.loc 1 765 0
 1815 000a 0C24     		movs	r4, #12
 1816 000c 0294     		str	r4, [sp, #8]
 766:Drivers/STM32F1xx_HAL_Driver/Src/stm32f1xx_ll_sdmmc.c ****   sdmmc_cmdinit.WaitForInterrupt = SDIO_WAIT_NO;
 1817              		.loc 1 766 0
 1818 000e 4022     		movs	r2, #64
 1819 0010 0392     		str	r2, [sp, #12]
 767:Drivers/STM32F1xx_HAL_Driver/Src/stm32f1xx_ll_sdmmc.c ****   sdmmc_cmdinit.CPSM             = SDIO_CPSM_ENABLE;
 1820              		.loc 1 767 0
 1821 0012 0493     		str	r3, [sp, #16]
 768:Drivers/STM32F1xx_HAL_Driver/Src/stm32f1xx_ll_sdmmc.c ****   (void)SDIO_SendCommand(SDIOx, &sdmmc_cmdinit);
 1822              		.loc 1 768 0
 1823 0014 4FF48063 		mov	r3, #1024
 1824 0018 0593     		str	r3, [sp, #20]
 769:Drivers/STM32F1xx_HAL_Driver/Src/stm32f1xx_ll_sdmmc.c ****   
 1825              		.loc 1 769 0
 1826 001a 01A9     		add	r1, sp, #4
 1827 001c FFF7FEFF 		bl	SDIO_SendCommand
 1828              	.LVL196:
 772:Drivers/STM32F1xx_HAL_Driver/Src/stm32f1xx_ll_sdmmc.c **** 
ARM GAS  /tmp/cc3JF8Cu.s 			page 63


 1829              		.loc 1 772 0
 1830 0020 034A     		ldr	r2, .L117
 1831 0022 2146     		mov	r1, r4
 1832 0024 2846     		mov	r0, r5
 1833 0026 FFF7FEFF 		bl	SDMMC_GetCmdResp1
 1834              	.LVL197:
 775:Drivers/STM32F1xx_HAL_Driver/Src/stm32f1xx_ll_sdmmc.c **** 
 1835              		.loc 1 775 0
 1836 002a 07B0     		add	sp, sp, #28
 1837              	.LCFI39:
 1838              		.cfi_def_cfa_offset 12
 1839              		@ sp needed
 1840 002c 30BD     		pop	{r4, r5, pc}
 1841              	.LVL198:
 1842              	.L118:
 1843 002e 00BF     		.align	2
 1844              	.L117:
 1845 0030 00E1F505 		.word	100000000
 1846              		.cfi_endproc
 1847              	.LFE88:
 1849              		.section	.text.SDMMC_CmdSelDesel,"ax",%progbits
 1850              		.align	1
 1851              		.global	SDMMC_CmdSelDesel
 1852              		.syntax unified
 1853              		.thumb
 1854              		.thumb_func
 1855              		.fpu softvfp
 1857              	SDMMC_CmdSelDesel:
 1858              	.LFB89:
 784:Drivers/STM32F1xx_HAL_Driver/Src/stm32f1xx_ll_sdmmc.c ****   SDIO_CmdInitTypeDef  sdmmc_cmdinit;
 1859              		.loc 1 784 0
 1860              		.cfi_startproc
 1861              		@ args = 0, pretend = 0, frame = 24
 1862              		@ frame_needed = 0, uses_anonymous_args = 0
 1863              	.LVL199:
 1864 0000 30B5     		push	{r4, r5, lr}
 1865              	.LCFI40:
 1866              		.cfi_def_cfa_offset 12
 1867              		.cfi_offset 4, -12
 1868              		.cfi_offset 5, -8
 1869              		.cfi_offset 14, -4
 1870 0002 87B0     		sub	sp, sp, #28
 1871              	.LCFI41:
 1872              		.cfi_def_cfa_offset 40
 1873 0004 0546     		mov	r5, r0
 789:Drivers/STM32F1xx_HAL_Driver/Src/stm32f1xx_ll_sdmmc.c ****   sdmmc_cmdinit.CmdIndex         = SDMMC_CMD_SEL_DESEL_CARD;
 1874              		.loc 1 789 0
 1875 0006 0192     		str	r2, [sp, #4]
 790:Drivers/STM32F1xx_HAL_Driver/Src/stm32f1xx_ll_sdmmc.c ****   sdmmc_cmdinit.Response         = SDIO_RESPONSE_SHORT;
 1876              		.loc 1 790 0
 1877 0008 0724     		movs	r4, #7
 1878 000a 0294     		str	r4, [sp, #8]
 791:Drivers/STM32F1xx_HAL_Driver/Src/stm32f1xx_ll_sdmmc.c ****   sdmmc_cmdinit.WaitForInterrupt = SDIO_WAIT_NO;
 1879              		.loc 1 791 0
 1880 000c 4023     		movs	r3, #64
 1881 000e 0393     		str	r3, [sp, #12]
 792:Drivers/STM32F1xx_HAL_Driver/Src/stm32f1xx_ll_sdmmc.c ****   sdmmc_cmdinit.CPSM             = SDIO_CPSM_ENABLE;
ARM GAS  /tmp/cc3JF8Cu.s 			page 64


 1882              		.loc 1 792 0
 1883 0010 0023     		movs	r3, #0
 1884 0012 0493     		str	r3, [sp, #16]
 793:Drivers/STM32F1xx_HAL_Driver/Src/stm32f1xx_ll_sdmmc.c ****   (void)SDIO_SendCommand(SDIOx, &sdmmc_cmdinit);
 1885              		.loc 1 793 0
 1886 0014 4FF48063 		mov	r3, #1024
 1887 0018 0593     		str	r3, [sp, #20]
 794:Drivers/STM32F1xx_HAL_Driver/Src/stm32f1xx_ll_sdmmc.c ****   
 1888              		.loc 1 794 0
 1889 001a 01A9     		add	r1, sp, #4
 1890 001c FFF7FEFF 		bl	SDIO_SendCommand
 1891              	.LVL200:
 797:Drivers/STM32F1xx_HAL_Driver/Src/stm32f1xx_ll_sdmmc.c **** 
 1892              		.loc 1 797 0
 1893 0020 41F28832 		movw	r2, #5000
 1894 0024 2146     		mov	r1, r4
 1895 0026 2846     		mov	r0, r5
 1896 0028 FFF7FEFF 		bl	SDMMC_GetCmdResp1
 1897              	.LVL201:
 800:Drivers/STM32F1xx_HAL_Driver/Src/stm32f1xx_ll_sdmmc.c **** 
 1898              		.loc 1 800 0
 1899 002c 07B0     		add	sp, sp, #28
 1900              	.LCFI42:
 1901              		.cfi_def_cfa_offset 12
 1902              		@ sp needed
 1903 002e 30BD     		pop	{r4, r5, pc}
 1904              		.cfi_endproc
 1905              	.LFE89:
 1907              		.section	.text.SDMMC_CmdGoIdleState,"ax",%progbits
 1908              		.align	1
 1909              		.global	SDMMC_CmdGoIdleState
 1910              		.syntax unified
 1911              		.thumb
 1912              		.thumb_func
 1913              		.fpu softvfp
 1915              	SDMMC_CmdGoIdleState:
 1916              	.LFB90:
 808:Drivers/STM32F1xx_HAL_Driver/Src/stm32f1xx_ll_sdmmc.c ****   SDIO_CmdInitTypeDef  sdmmc_cmdinit;
 1917              		.loc 1 808 0
 1918              		.cfi_startproc
 1919              		@ args = 0, pretend = 0, frame = 24
 1920              		@ frame_needed = 0, uses_anonymous_args = 0
 1921              	.LVL202:
 1922 0000 10B5     		push	{r4, lr}
 1923              	.LCFI43:
 1924              		.cfi_def_cfa_offset 8
 1925              		.cfi_offset 4, -8
 1926              		.cfi_offset 14, -4
 1927 0002 86B0     		sub	sp, sp, #24
 1928              	.LCFI44:
 1929              		.cfi_def_cfa_offset 32
 1930 0004 0446     		mov	r4, r0
 812:Drivers/STM32F1xx_HAL_Driver/Src/stm32f1xx_ll_sdmmc.c ****   sdmmc_cmdinit.CmdIndex         = SDMMC_CMD_GO_IDLE_STATE;
 1931              		.loc 1 812 0
 1932 0006 0023     		movs	r3, #0
 1933 0008 0193     		str	r3, [sp, #4]
 813:Drivers/STM32F1xx_HAL_Driver/Src/stm32f1xx_ll_sdmmc.c ****   sdmmc_cmdinit.Response         = SDIO_RESPONSE_NO;
ARM GAS  /tmp/cc3JF8Cu.s 			page 65


 1934              		.loc 1 813 0
 1935 000a 0293     		str	r3, [sp, #8]
 814:Drivers/STM32F1xx_HAL_Driver/Src/stm32f1xx_ll_sdmmc.c ****   sdmmc_cmdinit.WaitForInterrupt = SDIO_WAIT_NO;
 1936              		.loc 1 814 0
 1937 000c 0393     		str	r3, [sp, #12]
 815:Drivers/STM32F1xx_HAL_Driver/Src/stm32f1xx_ll_sdmmc.c ****   sdmmc_cmdinit.CPSM             = SDIO_CPSM_ENABLE;
 1938              		.loc 1 815 0
 1939 000e 0493     		str	r3, [sp, #16]
 816:Drivers/STM32F1xx_HAL_Driver/Src/stm32f1xx_ll_sdmmc.c ****   (void)SDIO_SendCommand(SDIOx, &sdmmc_cmdinit);
 1940              		.loc 1 816 0
 1941 0010 4FF48063 		mov	r3, #1024
 1942 0014 0593     		str	r3, [sp, #20]
 817:Drivers/STM32F1xx_HAL_Driver/Src/stm32f1xx_ll_sdmmc.c ****   
 1943              		.loc 1 817 0
 1944 0016 01A9     		add	r1, sp, #4
 1945 0018 FFF7FEFF 		bl	SDIO_SendCommand
 1946              	.LVL203:
 820:Drivers/STM32F1xx_HAL_Driver/Src/stm32f1xx_ll_sdmmc.c **** 
 1947              		.loc 1 820 0
 1948 001c 2046     		mov	r0, r4
 1949 001e FFF7FEFF 		bl	SDMMC_GetCmdError
 1950              	.LVL204:
 823:Drivers/STM32F1xx_HAL_Driver/Src/stm32f1xx_ll_sdmmc.c **** 
 1951              		.loc 1 823 0
 1952 0022 06B0     		add	sp, sp, #24
 1953              	.LCFI45:
 1954              		.cfi_def_cfa_offset 8
 1955              		@ sp needed
 1956 0024 10BD     		pop	{r4, pc}
 1957              		.cfi_endproc
 1958              	.LFE90:
 1960              		.section	.text.SDMMC_CmdOperCond,"ax",%progbits
 1961              		.align	1
 1962              		.global	SDMMC_CmdOperCond
 1963              		.syntax unified
 1964              		.thumb
 1965              		.thumb_func
 1966              		.fpu softvfp
 1968              	SDMMC_CmdOperCond:
 1969              	.LFB91:
 831:Drivers/STM32F1xx_HAL_Driver/Src/stm32f1xx_ll_sdmmc.c ****   SDIO_CmdInitTypeDef  sdmmc_cmdinit;
 1970              		.loc 1 831 0
 1971              		.cfi_startproc
 1972              		@ args = 0, pretend = 0, frame = 24
 1973              		@ frame_needed = 0, uses_anonymous_args = 0
 1974              	.LVL205:
 1975 0000 10B5     		push	{r4, lr}
 1976              	.LCFI46:
 1977              		.cfi_def_cfa_offset 8
 1978              		.cfi_offset 4, -8
 1979              		.cfi_offset 14, -4
 1980 0002 86B0     		sub	sp, sp, #24
 1981              	.LCFI47:
 1982              		.cfi_def_cfa_offset 32
 1983 0004 0446     		mov	r4, r0
 840:Drivers/STM32F1xx_HAL_Driver/Src/stm32f1xx_ll_sdmmc.c ****   sdmmc_cmdinit.CmdIndex         = SDMMC_CMD_HS_SEND_EXT_CSD;
 1984              		.loc 1 840 0
ARM GAS  /tmp/cc3JF8Cu.s 			page 66


 1985 0006 4FF4D573 		mov	r3, #426
 1986 000a 0193     		str	r3, [sp, #4]
 841:Drivers/STM32F1xx_HAL_Driver/Src/stm32f1xx_ll_sdmmc.c ****   sdmmc_cmdinit.Response         = SDIO_RESPONSE_SHORT;
 1987              		.loc 1 841 0
 1988 000c 0823     		movs	r3, #8
 1989 000e 0293     		str	r3, [sp, #8]
 842:Drivers/STM32F1xx_HAL_Driver/Src/stm32f1xx_ll_sdmmc.c ****   sdmmc_cmdinit.WaitForInterrupt = SDIO_WAIT_NO;
 1990              		.loc 1 842 0
 1991 0010 4023     		movs	r3, #64
 1992 0012 0393     		str	r3, [sp, #12]
 843:Drivers/STM32F1xx_HAL_Driver/Src/stm32f1xx_ll_sdmmc.c ****   sdmmc_cmdinit.CPSM             = SDIO_CPSM_ENABLE;
 1993              		.loc 1 843 0
 1994 0014 0023     		movs	r3, #0
 1995 0016 0493     		str	r3, [sp, #16]
 844:Drivers/STM32F1xx_HAL_Driver/Src/stm32f1xx_ll_sdmmc.c ****   (void)SDIO_SendCommand(SDIOx, &sdmmc_cmdinit);
 1996              		.loc 1 844 0
 1997 0018 4FF48063 		mov	r3, #1024
 1998 001c 0593     		str	r3, [sp, #20]
 845:Drivers/STM32F1xx_HAL_Driver/Src/stm32f1xx_ll_sdmmc.c ****   
 1999              		.loc 1 845 0
 2000 001e 01A9     		add	r1, sp, #4
 2001 0020 FFF7FEFF 		bl	SDIO_SendCommand
 2002              	.LVL206:
 848:Drivers/STM32F1xx_HAL_Driver/Src/stm32f1xx_ll_sdmmc.c **** 
 2003              		.loc 1 848 0
 2004 0024 2046     		mov	r0, r4
 2005 0026 FFF7FEFF 		bl	SDMMC_GetCmdResp7
 2006              	.LVL207:
 851:Drivers/STM32F1xx_HAL_Driver/Src/stm32f1xx_ll_sdmmc.c **** 
 2007              		.loc 1 851 0
 2008 002a 06B0     		add	sp, sp, #24
 2009              	.LCFI48:
 2010              		.cfi_def_cfa_offset 8
 2011              		@ sp needed
 2012 002c 10BD     		pop	{r4, pc}
 2013              		.cfi_endproc
 2014              	.LFE91:
 2016              		.section	.text.SDMMC_CmdAppCommand,"ax",%progbits
 2017              		.align	1
 2018              		.global	SDMMC_CmdAppCommand
 2019              		.syntax unified
 2020              		.thumb
 2021              		.thumb_func
 2022              		.fpu softvfp
 2024              	SDMMC_CmdAppCommand:
 2025              	.LFB92:
 862:Drivers/STM32F1xx_HAL_Driver/Src/stm32f1xx_ll_sdmmc.c ****   SDIO_CmdInitTypeDef  sdmmc_cmdinit;
 2026              		.loc 1 862 0
 2027              		.cfi_startproc
 2028              		@ args = 0, pretend = 0, frame = 24
 2029              		@ frame_needed = 0, uses_anonymous_args = 0
 2030              	.LVL208:
 2031 0000 30B5     		push	{r4, r5, lr}
 2032              	.LCFI49:
 2033              		.cfi_def_cfa_offset 12
 2034              		.cfi_offset 4, -12
 2035              		.cfi_offset 5, -8
ARM GAS  /tmp/cc3JF8Cu.s 			page 67


 2036              		.cfi_offset 14, -4
 2037 0002 87B0     		sub	sp, sp, #28
 2038              	.LCFI50:
 2039              		.cfi_def_cfa_offset 40
 2040 0004 0546     		mov	r5, r0
 866:Drivers/STM32F1xx_HAL_Driver/Src/stm32f1xx_ll_sdmmc.c ****   sdmmc_cmdinit.CmdIndex         = SDMMC_CMD_APP_CMD;
 2041              		.loc 1 866 0
 2042 0006 0191     		str	r1, [sp, #4]
 867:Drivers/STM32F1xx_HAL_Driver/Src/stm32f1xx_ll_sdmmc.c ****   sdmmc_cmdinit.Response         = SDIO_RESPONSE_SHORT;
 2043              		.loc 1 867 0
 2044 0008 3724     		movs	r4, #55
 2045 000a 0294     		str	r4, [sp, #8]
 868:Drivers/STM32F1xx_HAL_Driver/Src/stm32f1xx_ll_sdmmc.c ****   sdmmc_cmdinit.WaitForInterrupt = SDIO_WAIT_NO;
 2046              		.loc 1 868 0
 2047 000c 4023     		movs	r3, #64
 2048 000e 0393     		str	r3, [sp, #12]
 869:Drivers/STM32F1xx_HAL_Driver/Src/stm32f1xx_ll_sdmmc.c ****   sdmmc_cmdinit.CPSM             = SDIO_CPSM_ENABLE;
 2049              		.loc 1 869 0
 2050 0010 0023     		movs	r3, #0
 2051 0012 0493     		str	r3, [sp, #16]
 870:Drivers/STM32F1xx_HAL_Driver/Src/stm32f1xx_ll_sdmmc.c ****   (void)SDIO_SendCommand(SDIOx, &sdmmc_cmdinit);
 2052              		.loc 1 870 0
 2053 0014 4FF48063 		mov	r3, #1024
 2054 0018 0593     		str	r3, [sp, #20]
 871:Drivers/STM32F1xx_HAL_Driver/Src/stm32f1xx_ll_sdmmc.c ****   
 2055              		.loc 1 871 0
 2056 001a 01A9     		add	r1, sp, #4
 2057              	.LVL209:
 2058 001c FFF7FEFF 		bl	SDIO_SendCommand
 2059              	.LVL210:
 877:Drivers/STM32F1xx_HAL_Driver/Src/stm32f1xx_ll_sdmmc.c **** 
 2060              		.loc 1 877 0
 2061 0020 41F28832 		movw	r2, #5000
 2062 0024 2146     		mov	r1, r4
 2063 0026 2846     		mov	r0, r5
 2064 0028 FFF7FEFF 		bl	SDMMC_GetCmdResp1
 2065              	.LVL211:
 880:Drivers/STM32F1xx_HAL_Driver/Src/stm32f1xx_ll_sdmmc.c **** 
 2066              		.loc 1 880 0
 2067 002c 07B0     		add	sp, sp, #28
 2068              	.LCFI51:
 2069              		.cfi_def_cfa_offset 12
 2070              		@ sp needed
 2071 002e 30BD     		pop	{r4, r5, pc}
 2072              		.cfi_endproc
 2073              	.LFE92:
 2075              		.section	.text.SDMMC_CmdAppOperCommand,"ax",%progbits
 2076              		.align	1
 2077              		.global	SDMMC_CmdAppOperCommand
 2078              		.syntax unified
 2079              		.thumb
 2080              		.thumb_func
 2081              		.fpu softvfp
 2083              	SDMMC_CmdAppOperCommand:
 2084              	.LFB93:
 890:Drivers/STM32F1xx_HAL_Driver/Src/stm32f1xx_ll_sdmmc.c ****   SDIO_CmdInitTypeDef  sdmmc_cmdinit;
 2085              		.loc 1 890 0
ARM GAS  /tmp/cc3JF8Cu.s 			page 68


 2086              		.cfi_startproc
 2087              		@ args = 0, pretend = 0, frame = 24
 2088              		@ frame_needed = 0, uses_anonymous_args = 0
 2089              	.LVL212:
 2090 0000 10B5     		push	{r4, lr}
 2091              	.LCFI52:
 2092              		.cfi_def_cfa_offset 8
 2093              		.cfi_offset 4, -8
 2094              		.cfi_offset 14, -4
 2095 0002 86B0     		sub	sp, sp, #24
 2096              	.LCFI53:
 2097              		.cfi_def_cfa_offset 32
 2098 0004 0446     		mov	r4, r0
 894:Drivers/STM32F1xx_HAL_Driver/Src/stm32f1xx_ll_sdmmc.c ****   sdmmc_cmdinit.CmdIndex         = SDMMC_CMD_SD_APP_OP_COND;
 2099              		.loc 1 894 0
 2100 0006 41F00041 		orr	r1, r1, #-2147483648
 2101              	.LVL213:
 2102 000a 41F48011 		orr	r1, r1, #1048576
 2103 000e 0191     		str	r1, [sp, #4]
 895:Drivers/STM32F1xx_HAL_Driver/Src/stm32f1xx_ll_sdmmc.c ****   sdmmc_cmdinit.Response         = SDIO_RESPONSE_SHORT;
 2104              		.loc 1 895 0
 2105 0010 2923     		movs	r3, #41
 2106 0012 0293     		str	r3, [sp, #8]
 896:Drivers/STM32F1xx_HAL_Driver/Src/stm32f1xx_ll_sdmmc.c ****   sdmmc_cmdinit.WaitForInterrupt = SDIO_WAIT_NO;
 2107              		.loc 1 896 0
 2108 0014 4023     		movs	r3, #64
 2109 0016 0393     		str	r3, [sp, #12]
 897:Drivers/STM32F1xx_HAL_Driver/Src/stm32f1xx_ll_sdmmc.c ****   sdmmc_cmdinit.CPSM             = SDIO_CPSM_ENABLE;
 2110              		.loc 1 897 0
 2111 0018 0023     		movs	r3, #0
 2112 001a 0493     		str	r3, [sp, #16]
 898:Drivers/STM32F1xx_HAL_Driver/Src/stm32f1xx_ll_sdmmc.c ****   (void)SDIO_SendCommand(SDIOx, &sdmmc_cmdinit);
 2113              		.loc 1 898 0
 2114 001c 4FF48063 		mov	r3, #1024
 2115 0020 0593     		str	r3, [sp, #20]
 899:Drivers/STM32F1xx_HAL_Driver/Src/stm32f1xx_ll_sdmmc.c ****   
 2116              		.loc 1 899 0
 2117 0022 01A9     		add	r1, sp, #4
 2118 0024 FFF7FEFF 		bl	SDIO_SendCommand
 2119              	.LVL214:
 902:Drivers/STM32F1xx_HAL_Driver/Src/stm32f1xx_ll_sdmmc.c **** 
 2120              		.loc 1 902 0
 2121 0028 2046     		mov	r0, r4
 2122 002a FFF7FEFF 		bl	SDMMC_GetCmdResp3
 2123              	.LVL215:
 905:Drivers/STM32F1xx_HAL_Driver/Src/stm32f1xx_ll_sdmmc.c **** 
 2124              		.loc 1 905 0
 2125 002e 06B0     		add	sp, sp, #24
 2126              	.LCFI54:
 2127              		.cfi_def_cfa_offset 8
 2128              		@ sp needed
 2129 0030 10BD     		pop	{r4, pc}
 2130              		.cfi_endproc
 2131              	.LFE93:
 2133              		.section	.text.SDMMC_CmdBusWidth,"ax",%progbits
 2134              		.align	1
 2135              		.global	SDMMC_CmdBusWidth
ARM GAS  /tmp/cc3JF8Cu.s 			page 69


 2136              		.syntax unified
 2137              		.thumb
 2138              		.thumb_func
 2139              		.fpu softvfp
 2141              	SDMMC_CmdBusWidth:
 2142              	.LFB94:
 914:Drivers/STM32F1xx_HAL_Driver/Src/stm32f1xx_ll_sdmmc.c ****   SDIO_CmdInitTypeDef  sdmmc_cmdinit;
 2143              		.loc 1 914 0
 2144              		.cfi_startproc
 2145              		@ args = 0, pretend = 0, frame = 24
 2146              		@ frame_needed = 0, uses_anonymous_args = 0
 2147              	.LVL216:
 2148 0000 30B5     		push	{r4, r5, lr}
 2149              	.LCFI55:
 2150              		.cfi_def_cfa_offset 12
 2151              		.cfi_offset 4, -12
 2152              		.cfi_offset 5, -8
 2153              		.cfi_offset 14, -4
 2154 0002 87B0     		sub	sp, sp, #28
 2155              	.LCFI56:
 2156              		.cfi_def_cfa_offset 40
 2157 0004 0546     		mov	r5, r0
 918:Drivers/STM32F1xx_HAL_Driver/Src/stm32f1xx_ll_sdmmc.c ****   sdmmc_cmdinit.CmdIndex         = SDMMC_CMD_APP_SD_SET_BUSWIDTH;
 2158              		.loc 1 918 0
 2159 0006 0191     		str	r1, [sp, #4]
 919:Drivers/STM32F1xx_HAL_Driver/Src/stm32f1xx_ll_sdmmc.c ****   sdmmc_cmdinit.Response         = SDIO_RESPONSE_SHORT;
 2160              		.loc 1 919 0
 2161 0008 0624     		movs	r4, #6
 2162 000a 0294     		str	r4, [sp, #8]
 920:Drivers/STM32F1xx_HAL_Driver/Src/stm32f1xx_ll_sdmmc.c ****   sdmmc_cmdinit.WaitForInterrupt = SDIO_WAIT_NO;
 2163              		.loc 1 920 0
 2164 000c 4023     		movs	r3, #64
 2165 000e 0393     		str	r3, [sp, #12]
 921:Drivers/STM32F1xx_HAL_Driver/Src/stm32f1xx_ll_sdmmc.c ****   sdmmc_cmdinit.CPSM             = SDIO_CPSM_ENABLE;
 2166              		.loc 1 921 0
 2167 0010 0023     		movs	r3, #0
 2168 0012 0493     		str	r3, [sp, #16]
 922:Drivers/STM32F1xx_HAL_Driver/Src/stm32f1xx_ll_sdmmc.c ****   (void)SDIO_SendCommand(SDIOx, &sdmmc_cmdinit);
 2169              		.loc 1 922 0
 2170 0014 4FF48063 		mov	r3, #1024
 2171 0018 0593     		str	r3, [sp, #20]
 923:Drivers/STM32F1xx_HAL_Driver/Src/stm32f1xx_ll_sdmmc.c ****   
 2172              		.loc 1 923 0
 2173 001a 01A9     		add	r1, sp, #4
 2174              	.LVL217:
 2175 001c FFF7FEFF 		bl	SDIO_SendCommand
 2176              	.LVL218:
 926:Drivers/STM32F1xx_HAL_Driver/Src/stm32f1xx_ll_sdmmc.c **** 
 2177              		.loc 1 926 0
 2178 0020 41F28832 		movw	r2, #5000
 2179 0024 2146     		mov	r1, r4
 2180 0026 2846     		mov	r0, r5
 2181 0028 FFF7FEFF 		bl	SDMMC_GetCmdResp1
 2182              	.LVL219:
 929:Drivers/STM32F1xx_HAL_Driver/Src/stm32f1xx_ll_sdmmc.c **** 
 2183              		.loc 1 929 0
 2184 002c 07B0     		add	sp, sp, #28
ARM GAS  /tmp/cc3JF8Cu.s 			page 70


 2185              	.LCFI57:
 2186              		.cfi_def_cfa_offset 12
 2187              		@ sp needed
 2188 002e 30BD     		pop	{r4, r5, pc}
 2189              		.cfi_endproc
 2190              	.LFE94:
 2192              		.section	.text.SDMMC_CmdSendSCR,"ax",%progbits
 2193              		.align	1
 2194              		.global	SDMMC_CmdSendSCR
 2195              		.syntax unified
 2196              		.thumb
 2197              		.thumb_func
 2198              		.fpu softvfp
 2200              	SDMMC_CmdSendSCR:
 2201              	.LFB95:
 937:Drivers/STM32F1xx_HAL_Driver/Src/stm32f1xx_ll_sdmmc.c ****   SDIO_CmdInitTypeDef  sdmmc_cmdinit;
 2202              		.loc 1 937 0
 2203              		.cfi_startproc
 2204              		@ args = 0, pretend = 0, frame = 24
 2205              		@ frame_needed = 0, uses_anonymous_args = 0
 2206              	.LVL220:
 2207 0000 30B5     		push	{r4, r5, lr}
 2208              	.LCFI58:
 2209              		.cfi_def_cfa_offset 12
 2210              		.cfi_offset 4, -12
 2211              		.cfi_offset 5, -8
 2212              		.cfi_offset 14, -4
 2213 0002 87B0     		sub	sp, sp, #28
 2214              	.LCFI59:
 2215              		.cfi_def_cfa_offset 40
 2216 0004 0546     		mov	r5, r0
 942:Drivers/STM32F1xx_HAL_Driver/Src/stm32f1xx_ll_sdmmc.c ****   sdmmc_cmdinit.CmdIndex         = SDMMC_CMD_SD_APP_SEND_SCR;
 2217              		.loc 1 942 0
 2218 0006 0023     		movs	r3, #0
 2219 0008 0193     		str	r3, [sp, #4]
 943:Drivers/STM32F1xx_HAL_Driver/Src/stm32f1xx_ll_sdmmc.c ****   sdmmc_cmdinit.Response         = SDIO_RESPONSE_SHORT;
 2220              		.loc 1 943 0
 2221 000a 3324     		movs	r4, #51
 2222 000c 0294     		str	r4, [sp, #8]
 944:Drivers/STM32F1xx_HAL_Driver/Src/stm32f1xx_ll_sdmmc.c ****   sdmmc_cmdinit.WaitForInterrupt = SDIO_WAIT_NO;
 2223              		.loc 1 944 0
 2224 000e 4022     		movs	r2, #64
 2225 0010 0392     		str	r2, [sp, #12]
 945:Drivers/STM32F1xx_HAL_Driver/Src/stm32f1xx_ll_sdmmc.c ****   sdmmc_cmdinit.CPSM             = SDIO_CPSM_ENABLE;
 2226              		.loc 1 945 0
 2227 0012 0493     		str	r3, [sp, #16]
 946:Drivers/STM32F1xx_HAL_Driver/Src/stm32f1xx_ll_sdmmc.c ****   (void)SDIO_SendCommand(SDIOx, &sdmmc_cmdinit);
 2228              		.loc 1 946 0
 2229 0014 4FF48063 		mov	r3, #1024
 2230 0018 0593     		str	r3, [sp, #20]
 947:Drivers/STM32F1xx_HAL_Driver/Src/stm32f1xx_ll_sdmmc.c ****   
 2231              		.loc 1 947 0
 2232 001a 01A9     		add	r1, sp, #4
 2233 001c FFF7FEFF 		bl	SDIO_SendCommand
 2234              	.LVL221:
 950:Drivers/STM32F1xx_HAL_Driver/Src/stm32f1xx_ll_sdmmc.c **** 
 2235              		.loc 1 950 0
ARM GAS  /tmp/cc3JF8Cu.s 			page 71


 2236 0020 41F28832 		movw	r2, #5000
 2237 0024 2146     		mov	r1, r4
 2238 0026 2846     		mov	r0, r5
 2239 0028 FFF7FEFF 		bl	SDMMC_GetCmdResp1
 2240              	.LVL222:
 953:Drivers/STM32F1xx_HAL_Driver/Src/stm32f1xx_ll_sdmmc.c **** 
 2241              		.loc 1 953 0
 2242 002c 07B0     		add	sp, sp, #28
 2243              	.LCFI60:
 2244              		.cfi_def_cfa_offset 12
 2245              		@ sp needed
 2246 002e 30BD     		pop	{r4, r5, pc}
 2247              		.cfi_endproc
 2248              	.LFE95:
 2250              		.section	.text.SDMMC_CmdSendCID,"ax",%progbits
 2251              		.align	1
 2252              		.global	SDMMC_CmdSendCID
 2253              		.syntax unified
 2254              		.thumb
 2255              		.thumb_func
 2256              		.fpu softvfp
 2258              	SDMMC_CmdSendCID:
 2259              	.LFB96:
 961:Drivers/STM32F1xx_HAL_Driver/Src/stm32f1xx_ll_sdmmc.c ****   SDIO_CmdInitTypeDef  sdmmc_cmdinit;
 2260              		.loc 1 961 0
 2261              		.cfi_startproc
 2262              		@ args = 0, pretend = 0, frame = 24
 2263              		@ frame_needed = 0, uses_anonymous_args = 0
 2264              	.LVL223:
 2265 0000 10B5     		push	{r4, lr}
 2266              	.LCFI61:
 2267              		.cfi_def_cfa_offset 8
 2268              		.cfi_offset 4, -8
 2269              		.cfi_offset 14, -4
 2270 0002 86B0     		sub	sp, sp, #24
 2271              	.LCFI62:
 2272              		.cfi_def_cfa_offset 32
 2273 0004 0446     		mov	r4, r0
 966:Drivers/STM32F1xx_HAL_Driver/Src/stm32f1xx_ll_sdmmc.c ****   sdmmc_cmdinit.CmdIndex         = SDMMC_CMD_ALL_SEND_CID;
 2274              		.loc 1 966 0
 2275 0006 0023     		movs	r3, #0
 2276 0008 0193     		str	r3, [sp, #4]
 967:Drivers/STM32F1xx_HAL_Driver/Src/stm32f1xx_ll_sdmmc.c ****   sdmmc_cmdinit.Response         = SDIO_RESPONSE_LONG;
 2277              		.loc 1 967 0
 2278 000a 0222     		movs	r2, #2
 2279 000c 0292     		str	r2, [sp, #8]
 968:Drivers/STM32F1xx_HAL_Driver/Src/stm32f1xx_ll_sdmmc.c ****   sdmmc_cmdinit.WaitForInterrupt = SDIO_WAIT_NO;
 2280              		.loc 1 968 0
 2281 000e C022     		movs	r2, #192
 2282 0010 0392     		str	r2, [sp, #12]
 969:Drivers/STM32F1xx_HAL_Driver/Src/stm32f1xx_ll_sdmmc.c ****   sdmmc_cmdinit.CPSM             = SDIO_CPSM_ENABLE;
 2283              		.loc 1 969 0
 2284 0012 0493     		str	r3, [sp, #16]
 970:Drivers/STM32F1xx_HAL_Driver/Src/stm32f1xx_ll_sdmmc.c ****   (void)SDIO_SendCommand(SDIOx, &sdmmc_cmdinit);
 2285              		.loc 1 970 0
 2286 0014 4FF48063 		mov	r3, #1024
 2287 0018 0593     		str	r3, [sp, #20]
ARM GAS  /tmp/cc3JF8Cu.s 			page 72


 971:Drivers/STM32F1xx_HAL_Driver/Src/stm32f1xx_ll_sdmmc.c ****   
 2288              		.loc 1 971 0
 2289 001a 01A9     		add	r1, sp, #4
 2290 001c FFF7FEFF 		bl	SDIO_SendCommand
 2291              	.LVL224:
 974:Drivers/STM32F1xx_HAL_Driver/Src/stm32f1xx_ll_sdmmc.c **** 
 2292              		.loc 1 974 0
 2293 0020 2046     		mov	r0, r4
 2294 0022 FFF7FEFF 		bl	SDMMC_GetCmdResp2
 2295              	.LVL225:
 977:Drivers/STM32F1xx_HAL_Driver/Src/stm32f1xx_ll_sdmmc.c **** 
 2296              		.loc 1 977 0
 2297 0026 06B0     		add	sp, sp, #24
 2298              	.LCFI63:
 2299              		.cfi_def_cfa_offset 8
 2300              		@ sp needed
 2301 0028 10BD     		pop	{r4, pc}
 2302              		.cfi_endproc
 2303              	.LFE96:
 2305              		.section	.text.SDMMC_CmdSendCSD,"ax",%progbits
 2306              		.align	1
 2307              		.global	SDMMC_CmdSendCSD
 2308              		.syntax unified
 2309              		.thumb
 2310              		.thumb_func
 2311              		.fpu softvfp
 2313              	SDMMC_CmdSendCSD:
 2314              	.LFB97:
 986:Drivers/STM32F1xx_HAL_Driver/Src/stm32f1xx_ll_sdmmc.c ****   SDIO_CmdInitTypeDef  sdmmc_cmdinit;
 2315              		.loc 1 986 0
 2316              		.cfi_startproc
 2317              		@ args = 0, pretend = 0, frame = 24
 2318              		@ frame_needed = 0, uses_anonymous_args = 0
 2319              	.LVL226:
 2320 0000 10B5     		push	{r4, lr}
 2321              	.LCFI64:
 2322              		.cfi_def_cfa_offset 8
 2323              		.cfi_offset 4, -8
 2324              		.cfi_offset 14, -4
 2325 0002 86B0     		sub	sp, sp, #24
 2326              	.LCFI65:
 2327              		.cfi_def_cfa_offset 32
 2328 0004 0446     		mov	r4, r0
 991:Drivers/STM32F1xx_HAL_Driver/Src/stm32f1xx_ll_sdmmc.c ****   sdmmc_cmdinit.CmdIndex         = SDMMC_CMD_SEND_CSD;
 2329              		.loc 1 991 0
 2330 0006 0191     		str	r1, [sp, #4]
 992:Drivers/STM32F1xx_HAL_Driver/Src/stm32f1xx_ll_sdmmc.c ****   sdmmc_cmdinit.Response         = SDIO_RESPONSE_LONG;
 2331              		.loc 1 992 0
 2332 0008 0923     		movs	r3, #9
 2333 000a 0293     		str	r3, [sp, #8]
 993:Drivers/STM32F1xx_HAL_Driver/Src/stm32f1xx_ll_sdmmc.c ****   sdmmc_cmdinit.WaitForInterrupt = SDIO_WAIT_NO;
 2334              		.loc 1 993 0
 2335 000c C023     		movs	r3, #192
 2336 000e 0393     		str	r3, [sp, #12]
 994:Drivers/STM32F1xx_HAL_Driver/Src/stm32f1xx_ll_sdmmc.c ****   sdmmc_cmdinit.CPSM             = SDIO_CPSM_ENABLE;
 2337              		.loc 1 994 0
 2338 0010 0023     		movs	r3, #0
ARM GAS  /tmp/cc3JF8Cu.s 			page 73


 2339 0012 0493     		str	r3, [sp, #16]
 995:Drivers/STM32F1xx_HAL_Driver/Src/stm32f1xx_ll_sdmmc.c ****   (void)SDIO_SendCommand(SDIOx, &sdmmc_cmdinit);
 2340              		.loc 1 995 0
 2341 0014 4FF48063 		mov	r3, #1024
 2342 0018 0593     		str	r3, [sp, #20]
 996:Drivers/STM32F1xx_HAL_Driver/Src/stm32f1xx_ll_sdmmc.c ****   
 2343              		.loc 1 996 0
 2344 001a 01A9     		add	r1, sp, #4
 2345              	.LVL227:
 2346 001c FFF7FEFF 		bl	SDIO_SendCommand
 2347              	.LVL228:
 999:Drivers/STM32F1xx_HAL_Driver/Src/stm32f1xx_ll_sdmmc.c **** 
 2348              		.loc 1 999 0
 2349 0020 2046     		mov	r0, r4
 2350 0022 FFF7FEFF 		bl	SDMMC_GetCmdResp2
 2351              	.LVL229:
1002:Drivers/STM32F1xx_HAL_Driver/Src/stm32f1xx_ll_sdmmc.c **** 
 2352              		.loc 1 1002 0
 2353 0026 06B0     		add	sp, sp, #24
 2354              	.LCFI66:
 2355              		.cfi_def_cfa_offset 8
 2356              		@ sp needed
 2357 0028 10BD     		pop	{r4, pc}
 2358              		.cfi_endproc
 2359              	.LFE97:
 2361              		.section	.text.SDMMC_CmdSetRelAdd,"ax",%progbits
 2362              		.align	1
 2363              		.global	SDMMC_CmdSetRelAdd
 2364              		.syntax unified
 2365              		.thumb
 2366              		.thumb_func
 2367              		.fpu softvfp
 2369              	SDMMC_CmdSetRelAdd:
 2370              	.LFB98:
1011:Drivers/STM32F1xx_HAL_Driver/Src/stm32f1xx_ll_sdmmc.c ****   SDIO_CmdInitTypeDef  sdmmc_cmdinit;
 2371              		.loc 1 1011 0
 2372              		.cfi_startproc
 2373              		@ args = 0, pretend = 0, frame = 24
 2374              		@ frame_needed = 0, uses_anonymous_args = 0
 2375              	.LVL230:
 2376 0000 70B5     		push	{r4, r5, r6, lr}
 2377              	.LCFI67:
 2378              		.cfi_def_cfa_offset 16
 2379              		.cfi_offset 4, -16
 2380              		.cfi_offset 5, -12
 2381              		.cfi_offset 6, -8
 2382              		.cfi_offset 14, -4
 2383 0002 86B0     		sub	sp, sp, #24
 2384              	.LCFI68:
 2385              		.cfi_def_cfa_offset 40
 2386 0004 0546     		mov	r5, r0
 2387 0006 0E46     		mov	r6, r1
1016:Drivers/STM32F1xx_HAL_Driver/Src/stm32f1xx_ll_sdmmc.c ****   sdmmc_cmdinit.CmdIndex         = SDMMC_CMD_SET_REL_ADDR;
 2388              		.loc 1 1016 0
 2389 0008 0023     		movs	r3, #0
 2390 000a 0193     		str	r3, [sp, #4]
1017:Drivers/STM32F1xx_HAL_Driver/Src/stm32f1xx_ll_sdmmc.c ****   sdmmc_cmdinit.Response         = SDIO_RESPONSE_SHORT;
ARM GAS  /tmp/cc3JF8Cu.s 			page 74


 2391              		.loc 1 1017 0
 2392 000c 0324     		movs	r4, #3
 2393 000e 0294     		str	r4, [sp, #8]
1018:Drivers/STM32F1xx_HAL_Driver/Src/stm32f1xx_ll_sdmmc.c ****   sdmmc_cmdinit.WaitForInterrupt = SDIO_WAIT_NO;
 2394              		.loc 1 1018 0
 2395 0010 4022     		movs	r2, #64
 2396 0012 0392     		str	r2, [sp, #12]
1019:Drivers/STM32F1xx_HAL_Driver/Src/stm32f1xx_ll_sdmmc.c ****   sdmmc_cmdinit.CPSM             = SDIO_CPSM_ENABLE;
 2397              		.loc 1 1019 0
 2398 0014 0493     		str	r3, [sp, #16]
1020:Drivers/STM32F1xx_HAL_Driver/Src/stm32f1xx_ll_sdmmc.c ****   (void)SDIO_SendCommand(SDIOx, &sdmmc_cmdinit);
 2399              		.loc 1 1020 0
 2400 0016 4FF48063 		mov	r3, #1024
 2401 001a 0593     		str	r3, [sp, #20]
1021:Drivers/STM32F1xx_HAL_Driver/Src/stm32f1xx_ll_sdmmc.c ****   
 2402              		.loc 1 1021 0
 2403 001c 01A9     		add	r1, sp, #4
 2404              	.LVL231:
 2405 001e FFF7FEFF 		bl	SDIO_SendCommand
 2406              	.LVL232:
1024:Drivers/STM32F1xx_HAL_Driver/Src/stm32f1xx_ll_sdmmc.c **** 
 2407              		.loc 1 1024 0
 2408 0022 3246     		mov	r2, r6
 2409 0024 2146     		mov	r1, r4
 2410 0026 2846     		mov	r0, r5
 2411 0028 FFF7FEFF 		bl	SDMMC_GetCmdResp6
 2412              	.LVL233:
1027:Drivers/STM32F1xx_HAL_Driver/Src/stm32f1xx_ll_sdmmc.c **** 
 2413              		.loc 1 1027 0
 2414 002c 06B0     		add	sp, sp, #24
 2415              	.LCFI69:
 2416              		.cfi_def_cfa_offset 16
 2417              		@ sp needed
 2418 002e 70BD     		pop	{r4, r5, r6, pc}
 2419              		.cfi_endproc
 2420              	.LFE98:
 2422              		.section	.text.SDMMC_CmdSendStatus,"ax",%progbits
 2423              		.align	1
 2424              		.global	SDMMC_CmdSendStatus
 2425              		.syntax unified
 2426              		.thumb
 2427              		.thumb_func
 2428              		.fpu softvfp
 2430              	SDMMC_CmdSendStatus:
 2431              	.LFB99:
1036:Drivers/STM32F1xx_HAL_Driver/Src/stm32f1xx_ll_sdmmc.c ****   SDIO_CmdInitTypeDef  sdmmc_cmdinit;
 2432              		.loc 1 1036 0
 2433              		.cfi_startproc
 2434              		@ args = 0, pretend = 0, frame = 24
 2435              		@ frame_needed = 0, uses_anonymous_args = 0
 2436              	.LVL234:
 2437 0000 30B5     		push	{r4, r5, lr}
 2438              	.LCFI70:
 2439              		.cfi_def_cfa_offset 12
 2440              		.cfi_offset 4, -12
 2441              		.cfi_offset 5, -8
 2442              		.cfi_offset 14, -4
ARM GAS  /tmp/cc3JF8Cu.s 			page 75


 2443 0002 87B0     		sub	sp, sp, #28
 2444              	.LCFI71:
 2445              		.cfi_def_cfa_offset 40
 2446 0004 0546     		mov	r5, r0
1040:Drivers/STM32F1xx_HAL_Driver/Src/stm32f1xx_ll_sdmmc.c ****   sdmmc_cmdinit.CmdIndex         = SDMMC_CMD_SEND_STATUS;
 2447              		.loc 1 1040 0
 2448 0006 0191     		str	r1, [sp, #4]
1041:Drivers/STM32F1xx_HAL_Driver/Src/stm32f1xx_ll_sdmmc.c ****   sdmmc_cmdinit.Response         = SDIO_RESPONSE_SHORT;
 2449              		.loc 1 1041 0
 2450 0008 0D24     		movs	r4, #13
 2451 000a 0294     		str	r4, [sp, #8]
1042:Drivers/STM32F1xx_HAL_Driver/Src/stm32f1xx_ll_sdmmc.c ****   sdmmc_cmdinit.WaitForInterrupt = SDIO_WAIT_NO;
 2452              		.loc 1 1042 0
 2453 000c 4023     		movs	r3, #64
 2454 000e 0393     		str	r3, [sp, #12]
1043:Drivers/STM32F1xx_HAL_Driver/Src/stm32f1xx_ll_sdmmc.c ****   sdmmc_cmdinit.CPSM             = SDIO_CPSM_ENABLE;
 2455              		.loc 1 1043 0
 2456 0010 0023     		movs	r3, #0
 2457 0012 0493     		str	r3, [sp, #16]
1044:Drivers/STM32F1xx_HAL_Driver/Src/stm32f1xx_ll_sdmmc.c ****   (void)SDIO_SendCommand(SDIOx, &sdmmc_cmdinit);
 2458              		.loc 1 1044 0
 2459 0014 4FF48063 		mov	r3, #1024
 2460 0018 0593     		str	r3, [sp, #20]
1045:Drivers/STM32F1xx_HAL_Driver/Src/stm32f1xx_ll_sdmmc.c ****   
 2461              		.loc 1 1045 0
 2462 001a 01A9     		add	r1, sp, #4
 2463              	.LVL235:
 2464 001c FFF7FEFF 		bl	SDIO_SendCommand
 2465              	.LVL236:
1048:Drivers/STM32F1xx_HAL_Driver/Src/stm32f1xx_ll_sdmmc.c **** 
 2466              		.loc 1 1048 0
 2467 0020 41F28832 		movw	r2, #5000
 2468 0024 2146     		mov	r1, r4
 2469 0026 2846     		mov	r0, r5
 2470 0028 FFF7FEFF 		bl	SDMMC_GetCmdResp1
 2471              	.LVL237:
1051:Drivers/STM32F1xx_HAL_Driver/Src/stm32f1xx_ll_sdmmc.c **** 
 2472              		.loc 1 1051 0
 2473 002c 07B0     		add	sp, sp, #28
 2474              	.LCFI72:
 2475              		.cfi_def_cfa_offset 12
 2476              		@ sp needed
 2477 002e 30BD     		pop	{r4, r5, pc}
 2478              		.cfi_endproc
 2479              	.LFE99:
 2481              		.section	.text.SDMMC_CmdStatusRegister,"ax",%progbits
 2482              		.align	1
 2483              		.global	SDMMC_CmdStatusRegister
 2484              		.syntax unified
 2485              		.thumb
 2486              		.thumb_func
 2487              		.fpu softvfp
 2489              	SDMMC_CmdStatusRegister:
 2490              	.LFB100:
1059:Drivers/STM32F1xx_HAL_Driver/Src/stm32f1xx_ll_sdmmc.c ****   SDIO_CmdInitTypeDef  sdmmc_cmdinit;
 2491              		.loc 1 1059 0
 2492              		.cfi_startproc
ARM GAS  /tmp/cc3JF8Cu.s 			page 76


 2493              		@ args = 0, pretend = 0, frame = 24
 2494              		@ frame_needed = 0, uses_anonymous_args = 0
 2495              	.LVL238:
 2496 0000 30B5     		push	{r4, r5, lr}
 2497              	.LCFI73:
 2498              		.cfi_def_cfa_offset 12
 2499              		.cfi_offset 4, -12
 2500              		.cfi_offset 5, -8
 2501              		.cfi_offset 14, -4
 2502 0002 87B0     		sub	sp, sp, #28
 2503              	.LCFI74:
 2504              		.cfi_def_cfa_offset 40
 2505 0004 0546     		mov	r5, r0
1063:Drivers/STM32F1xx_HAL_Driver/Src/stm32f1xx_ll_sdmmc.c ****   sdmmc_cmdinit.CmdIndex         = SDMMC_CMD_SD_APP_STATUS;
 2506              		.loc 1 1063 0
 2507 0006 0023     		movs	r3, #0
 2508 0008 0193     		str	r3, [sp, #4]
1064:Drivers/STM32F1xx_HAL_Driver/Src/stm32f1xx_ll_sdmmc.c ****   sdmmc_cmdinit.Response         = SDIO_RESPONSE_SHORT;
 2509              		.loc 1 1064 0
 2510 000a 0D24     		movs	r4, #13
 2511 000c 0294     		str	r4, [sp, #8]
1065:Drivers/STM32F1xx_HAL_Driver/Src/stm32f1xx_ll_sdmmc.c ****   sdmmc_cmdinit.WaitForInterrupt = SDIO_WAIT_NO;
 2512              		.loc 1 1065 0
 2513 000e 4022     		movs	r2, #64
 2514 0010 0392     		str	r2, [sp, #12]
1066:Drivers/STM32F1xx_HAL_Driver/Src/stm32f1xx_ll_sdmmc.c ****   sdmmc_cmdinit.CPSM             = SDIO_CPSM_ENABLE;
 2515              		.loc 1 1066 0
 2516 0012 0493     		str	r3, [sp, #16]
1067:Drivers/STM32F1xx_HAL_Driver/Src/stm32f1xx_ll_sdmmc.c ****   (void)SDIO_SendCommand(SDIOx, &sdmmc_cmdinit);
 2517              		.loc 1 1067 0
 2518 0014 4FF48063 		mov	r3, #1024
 2519 0018 0593     		str	r3, [sp, #20]
1068:Drivers/STM32F1xx_HAL_Driver/Src/stm32f1xx_ll_sdmmc.c ****   
 2520              		.loc 1 1068 0
 2521 001a 01A9     		add	r1, sp, #4
 2522 001c FFF7FEFF 		bl	SDIO_SendCommand
 2523              	.LVL239:
1071:Drivers/STM32F1xx_HAL_Driver/Src/stm32f1xx_ll_sdmmc.c **** 
 2524              		.loc 1 1071 0
 2525 0020 41F28832 		movw	r2, #5000
 2526 0024 2146     		mov	r1, r4
 2527 0026 2846     		mov	r0, r5
 2528 0028 FFF7FEFF 		bl	SDMMC_GetCmdResp1
 2529              	.LVL240:
1074:Drivers/STM32F1xx_HAL_Driver/Src/stm32f1xx_ll_sdmmc.c **** 
 2530              		.loc 1 1074 0
 2531 002c 07B0     		add	sp, sp, #28
 2532              	.LCFI75:
 2533              		.cfi_def_cfa_offset 12
 2534              		@ sp needed
 2535 002e 30BD     		pop	{r4, r5, pc}
 2536              		.cfi_endproc
 2537              	.LFE100:
 2539              		.section	.text.SDMMC_CmdOpCondition,"ax",%progbits
 2540              		.align	1
 2541              		.global	SDMMC_CmdOpCondition
 2542              		.syntax unified
ARM GAS  /tmp/cc3JF8Cu.s 			page 77


 2543              		.thumb
 2544              		.thumb_func
 2545              		.fpu softvfp
 2547              	SDMMC_CmdOpCondition:
 2548              	.LFB101:
1084:Drivers/STM32F1xx_HAL_Driver/Src/stm32f1xx_ll_sdmmc.c ****   SDIO_CmdInitTypeDef  sdmmc_cmdinit;
 2549              		.loc 1 1084 0
 2550              		.cfi_startproc
 2551              		@ args = 0, pretend = 0, frame = 24
 2552              		@ frame_needed = 0, uses_anonymous_args = 0
 2553              	.LVL241:
 2554 0000 10B5     		push	{r4, lr}
 2555              	.LCFI76:
 2556              		.cfi_def_cfa_offset 8
 2557              		.cfi_offset 4, -8
 2558              		.cfi_offset 14, -4
 2559 0002 86B0     		sub	sp, sp, #24
 2560              	.LCFI77:
 2561              		.cfi_def_cfa_offset 32
 2562 0004 0446     		mov	r4, r0
1088:Drivers/STM32F1xx_HAL_Driver/Src/stm32f1xx_ll_sdmmc.c ****   sdmmc_cmdinit.CmdIndex         = SDMMC_CMD_SEND_OP_COND;
 2563              		.loc 1 1088 0
 2564 0006 0191     		str	r1, [sp, #4]
1089:Drivers/STM32F1xx_HAL_Driver/Src/stm32f1xx_ll_sdmmc.c ****   sdmmc_cmdinit.Response         = SDIO_RESPONSE_SHORT;
 2565              		.loc 1 1089 0
 2566 0008 0123     		movs	r3, #1
 2567 000a 0293     		str	r3, [sp, #8]
1090:Drivers/STM32F1xx_HAL_Driver/Src/stm32f1xx_ll_sdmmc.c ****   sdmmc_cmdinit.WaitForInterrupt = SDIO_WAIT_NO;
 2568              		.loc 1 1090 0
 2569 000c 4023     		movs	r3, #64
 2570 000e 0393     		str	r3, [sp, #12]
1091:Drivers/STM32F1xx_HAL_Driver/Src/stm32f1xx_ll_sdmmc.c ****   sdmmc_cmdinit.CPSM             = SDIO_CPSM_ENABLE;
 2571              		.loc 1 1091 0
 2572 0010 0023     		movs	r3, #0
 2573 0012 0493     		str	r3, [sp, #16]
1092:Drivers/STM32F1xx_HAL_Driver/Src/stm32f1xx_ll_sdmmc.c ****   (void)SDIO_SendCommand(SDIOx, &sdmmc_cmdinit);
 2574              		.loc 1 1092 0
 2575 0014 4FF48063 		mov	r3, #1024
 2576 0018 0593     		str	r3, [sp, #20]
1093:Drivers/STM32F1xx_HAL_Driver/Src/stm32f1xx_ll_sdmmc.c ****   
 2577              		.loc 1 1093 0
 2578 001a 01A9     		add	r1, sp, #4
 2579              	.LVL242:
 2580 001c FFF7FEFF 		bl	SDIO_SendCommand
 2581              	.LVL243:
1096:Drivers/STM32F1xx_HAL_Driver/Src/stm32f1xx_ll_sdmmc.c **** 
 2582              		.loc 1 1096 0
 2583 0020 2046     		mov	r0, r4
 2584 0022 FFF7FEFF 		bl	SDMMC_GetCmdResp3
 2585              	.LVL244:
1099:Drivers/STM32F1xx_HAL_Driver/Src/stm32f1xx_ll_sdmmc.c **** 
 2586              		.loc 1 1099 0
 2587 0026 06B0     		add	sp, sp, #24
 2588              	.LCFI78:
 2589              		.cfi_def_cfa_offset 8
 2590              		@ sp needed
 2591 0028 10BD     		pop	{r4, pc}
ARM GAS  /tmp/cc3JF8Cu.s 			page 78


 2592              		.cfi_endproc
 2593              	.LFE101:
 2595              		.section	.text.SDMMC_CmdSwitch,"ax",%progbits
 2596              		.align	1
 2597              		.global	SDMMC_CmdSwitch
 2598              		.syntax unified
 2599              		.thumb
 2600              		.thumb_func
 2601              		.fpu softvfp
 2603              	SDMMC_CmdSwitch:
 2604              	.LFB102:
1108:Drivers/STM32F1xx_HAL_Driver/Src/stm32f1xx_ll_sdmmc.c ****   SDIO_CmdInitTypeDef  sdmmc_cmdinit;
 2605              		.loc 1 1108 0
 2606              		.cfi_startproc
 2607              		@ args = 0, pretend = 0, frame = 24
 2608              		@ frame_needed = 0, uses_anonymous_args = 0
 2609              	.LVL245:
 2610 0000 30B5     		push	{r4, r5, lr}
 2611              	.LCFI79:
 2612              		.cfi_def_cfa_offset 12
 2613              		.cfi_offset 4, -12
 2614              		.cfi_offset 5, -8
 2615              		.cfi_offset 14, -4
 2616 0002 87B0     		sub	sp, sp, #28
 2617              	.LCFI80:
 2618              		.cfi_def_cfa_offset 40
 2619 0004 0546     		mov	r5, r0
1114:Drivers/STM32F1xx_HAL_Driver/Src/stm32f1xx_ll_sdmmc.c ****   sdmmc_cmdinit.CmdIndex         = SDMMC_CMD_HS_SWITCH;
 2620              		.loc 1 1114 0
 2621 0006 0191     		str	r1, [sp, #4]
1115:Drivers/STM32F1xx_HAL_Driver/Src/stm32f1xx_ll_sdmmc.c ****   sdmmc_cmdinit.Response         = SDIO_RESPONSE_SHORT;
 2622              		.loc 1 1115 0
 2623 0008 0624     		movs	r4, #6
 2624 000a 0294     		str	r4, [sp, #8]
1116:Drivers/STM32F1xx_HAL_Driver/Src/stm32f1xx_ll_sdmmc.c ****   sdmmc_cmdinit.WaitForInterrupt = SDIO_WAIT_NO;
 2625              		.loc 1 1116 0
 2626 000c 4023     		movs	r3, #64
 2627 000e 0393     		str	r3, [sp, #12]
1117:Drivers/STM32F1xx_HAL_Driver/Src/stm32f1xx_ll_sdmmc.c ****   sdmmc_cmdinit.CPSM             = SDIO_CPSM_ENABLE;
 2628              		.loc 1 1117 0
 2629 0010 0023     		movs	r3, #0
 2630 0012 0493     		str	r3, [sp, #16]
1118:Drivers/STM32F1xx_HAL_Driver/Src/stm32f1xx_ll_sdmmc.c ****   (void)SDIO_SendCommand(SDIOx, &sdmmc_cmdinit);
 2631              		.loc 1 1118 0
 2632 0014 4FF48063 		mov	r3, #1024
 2633 0018 0593     		str	r3, [sp, #20]
1119:Drivers/STM32F1xx_HAL_Driver/Src/stm32f1xx_ll_sdmmc.c ****   
 2634              		.loc 1 1119 0
 2635 001a 01A9     		add	r1, sp, #4
 2636              	.LVL246:
 2637 001c FFF7FEFF 		bl	SDIO_SendCommand
 2638              	.LVL247:
1122:Drivers/STM32F1xx_HAL_Driver/Src/stm32f1xx_ll_sdmmc.c **** 
 2639              		.loc 1 1122 0
 2640 0020 41F28832 		movw	r2, #5000
 2641 0024 2146     		mov	r1, r4
 2642 0026 2846     		mov	r0, r5
ARM GAS  /tmp/cc3JF8Cu.s 			page 79


 2643 0028 FFF7FEFF 		bl	SDMMC_GetCmdResp1
 2644              	.LVL248:
1125:Drivers/STM32F1xx_HAL_Driver/Src/stm32f1xx_ll_sdmmc.c **** 
 2645              		.loc 1 1125 0
 2646 002c 07B0     		add	sp, sp, #28
 2647              	.LCFI81:
 2648              		.cfi_def_cfa_offset 12
 2649              		@ sp needed
 2650 002e 30BD     		pop	{r4, r5, pc}
 2651              		.cfi_endproc
 2652              	.LFE102:
 2654              		.text
 2655              	.Letext0:
 2656              		.file 2 "/usr/include/newlib/machine/_default_types.h"
 2657              		.file 3 "/usr/include/newlib/sys/_stdint.h"
 2658              		.file 4 "Drivers/CMSIS/Include/core_cm3.h"
 2659              		.file 5 "Drivers/CMSIS/Device/ST/STM32F1xx/Include/system_stm32f1xx.h"
 2660              		.file 6 "Drivers/CMSIS/Device/ST/STM32F1xx/Include/stm32f103xe.h"
 2661              		.file 7 "Drivers/STM32F1xx_HAL_Driver/Inc/stm32f1xx_hal_def.h"
 2662              		.file 8 "Drivers/STM32F1xx_HAL_Driver/Inc/stm32f1xx_ll_sdmmc.h"
 2663              		.file 9 "Drivers/STM32F1xx_HAL_Driver/Inc/stm32f1xx_hal.h"
ARM GAS  /tmp/cc3JF8Cu.s 			page 80


DEFINED SYMBOLS
                            *ABS*:0000000000000000 stm32f1xx_ll_sdmmc.c
     /tmp/cc3JF8Cu.s:16     .text.SDMMC_GetCmdError:0000000000000000 $t
     /tmp/cc3JF8Cu.s:22     .text.SDMMC_GetCmdError:0000000000000000 SDMMC_GetCmdError
     /tmp/cc3JF8Cu.s:69     .text.SDMMC_GetCmdError:0000000000000030 $d
     /tmp/cc3JF8Cu.s:75     .text.SDMMC_GetCmdResp2:0000000000000000 $t
     /tmp/cc3JF8Cu.s:81     .text.SDMMC_GetCmdResp2:0000000000000000 SDMMC_GetCmdResp2
     /tmp/cc3JF8Cu.s:156    .text.SDMMC_GetCmdResp2:0000000000000058 $d
     /tmp/cc3JF8Cu.s:162    .text.SDMMC_GetCmdResp3:0000000000000000 $t
     /tmp/cc3JF8Cu.s:168    .text.SDMMC_GetCmdResp3:0000000000000000 SDMMC_GetCmdResp3
     /tmp/cc3JF8Cu.s:230    .text.SDMMC_GetCmdResp3:0000000000000048 $d
     /tmp/cc3JF8Cu.s:236    .text.SDMMC_GetCmdResp7:0000000000000000 $t
     /tmp/cc3JF8Cu.s:242    .text.SDMMC_GetCmdResp7:0000000000000000 SDMMC_GetCmdResp7
     /tmp/cc3JF8Cu.s:327    .text.SDMMC_GetCmdResp7:0000000000000064 $d
     /tmp/cc3JF8Cu.s:333    .text.SDIO_Init:0000000000000000 $t
     /tmp/cc3JF8Cu.s:340    .text.SDIO_Init:0000000000000000 SDIO_Init
     /tmp/cc3JF8Cu.s:403    .text.SDIO_ReadFIFO:0000000000000000 $t
     /tmp/cc3JF8Cu.s:410    .text.SDIO_ReadFIFO:0000000000000000 SDIO_ReadFIFO
     /tmp/cc3JF8Cu.s:427    .text.SDIO_WriteFIFO:0000000000000000 $t
     /tmp/cc3JF8Cu.s:434    .text.SDIO_WriteFIFO:0000000000000000 SDIO_WriteFIFO
     /tmp/cc3JF8Cu.s:453    .text.SDIO_PowerState_ON:0000000000000000 $t
     /tmp/cc3JF8Cu.s:460    .text.SDIO_PowerState_ON:0000000000000000 SDIO_PowerState_ON
     /tmp/cc3JF8Cu.s:487    .text.SDIO_PowerState_OFF:0000000000000000 $t
     /tmp/cc3JF8Cu.s:494    .text.SDIO_PowerState_OFF:0000000000000000 SDIO_PowerState_OFF
     /tmp/cc3JF8Cu.s:513    .text.SDIO_GetPowerState:0000000000000000 $t
     /tmp/cc3JF8Cu.s:520    .text.SDIO_GetPowerState:0000000000000000 SDIO_GetPowerState
     /tmp/cc3JF8Cu.s:538    .text.SDIO_SendCommand:0000000000000000 $t
     /tmp/cc3JF8Cu.s:545    .text.SDIO_SendCommand:0000000000000000 SDIO_SendCommand
     /tmp/cc3JF8Cu.s:587    .text.SDIO_GetCommandResponse:0000000000000000 $t
     /tmp/cc3JF8Cu.s:594    .text.SDIO_GetCommandResponse:0000000000000000 SDIO_GetCommandResponse
     /tmp/cc3JF8Cu.s:612    .text.SDIO_GetResponse:0000000000000000 $t
     /tmp/cc3JF8Cu.s:619    .text.SDIO_GetResponse:0000000000000000 SDIO_GetResponse
     /tmp/cc3JF8Cu.s:639    .text.SDMMC_GetCmdResp1:0000000000000000 $t
     /tmp/cc3JF8Cu.s:645    .text.SDMMC_GetCmdResp1:0000000000000000 SDMMC_GetCmdResp1
     /tmp/cc3JF8Cu.s:918    .text.SDMMC_GetCmdResp1:000000000000014c $d
     /tmp/cc3JF8Cu.s:925    .text.SDMMC_GetCmdResp6:0000000000000000 $t
     /tmp/cc3JF8Cu.s:931    .text.SDMMC_GetCmdResp6:0000000000000000 SDMMC_GetCmdResp6
     /tmp/cc3JF8Cu.s:1064   .text.SDMMC_GetCmdResp6:000000000000009c $d
     /tmp/cc3JF8Cu.s:1070   .text.SDIO_ConfigData:0000000000000000 $t
     /tmp/cc3JF8Cu.s:1077   .text.SDIO_ConfigData:0000000000000000 SDIO_ConfigData
     /tmp/cc3JF8Cu.s:1121   .text.SDIO_GetDataCounter:0000000000000000 $t
     /tmp/cc3JF8Cu.s:1128   .text.SDIO_GetDataCounter:0000000000000000 SDIO_GetDataCounter
     /tmp/cc3JF8Cu.s:1145   .text.SDIO_GetFIFOCount:0000000000000000 $t
     /tmp/cc3JF8Cu.s:1152   .text.SDIO_GetFIFOCount:0000000000000000 SDIO_GetFIFOCount
     /tmp/cc3JF8Cu.s:1169   .text.SDIO_SetSDMMCReadWaitMode:0000000000000000 $t
     /tmp/cc3JF8Cu.s:1176   .text.SDIO_SetSDMMCReadWaitMode:0000000000000000 SDIO_SetSDMMCReadWaitMode
     /tmp/cc3JF8Cu.s:1198   .text.SDMMC_CmdBlockLength:0000000000000000 $t
     /tmp/cc3JF8Cu.s:1205   .text.SDMMC_CmdBlockLength:0000000000000000 SDMMC_CmdBlockLength
     /tmp/cc3JF8Cu.s:1257   .text.SDMMC_CmdReadSingleBlock:0000000000000000 $t
     /tmp/cc3JF8Cu.s:1264   .text.SDMMC_CmdReadSingleBlock:0000000000000000 SDMMC_CmdReadSingleBlock
     /tmp/cc3JF8Cu.s:1316   .text.SDMMC_CmdReadMultiBlock:0000000000000000 $t
     /tmp/cc3JF8Cu.s:1323   .text.SDMMC_CmdReadMultiBlock:0000000000000000 SDMMC_CmdReadMultiBlock
     /tmp/cc3JF8Cu.s:1375   .text.SDMMC_CmdWriteSingleBlock:0000000000000000 $t
     /tmp/cc3JF8Cu.s:1382   .text.SDMMC_CmdWriteSingleBlock:0000000000000000 SDMMC_CmdWriteSingleBlock
     /tmp/cc3JF8Cu.s:1434   .text.SDMMC_CmdWriteMultiBlock:0000000000000000 $t
     /tmp/cc3JF8Cu.s:1441   .text.SDMMC_CmdWriteMultiBlock:0000000000000000 SDMMC_CmdWriteMultiBlock
     /tmp/cc3JF8Cu.s:1493   .text.SDMMC_CmdSDEraseStartAdd:0000000000000000 $t
ARM GAS  /tmp/cc3JF8Cu.s 			page 81


     /tmp/cc3JF8Cu.s:1500   .text.SDMMC_CmdSDEraseStartAdd:0000000000000000 SDMMC_CmdSDEraseStartAdd
     /tmp/cc3JF8Cu.s:1552   .text.SDMMC_CmdSDEraseEndAdd:0000000000000000 $t
     /tmp/cc3JF8Cu.s:1559   .text.SDMMC_CmdSDEraseEndAdd:0000000000000000 SDMMC_CmdSDEraseEndAdd
     /tmp/cc3JF8Cu.s:1611   .text.SDMMC_CmdEraseStartAdd:0000000000000000 $t
     /tmp/cc3JF8Cu.s:1618   .text.SDMMC_CmdEraseStartAdd:0000000000000000 SDMMC_CmdEraseStartAdd
     /tmp/cc3JF8Cu.s:1670   .text.SDMMC_CmdEraseEndAdd:0000000000000000 $t
     /tmp/cc3JF8Cu.s:1677   .text.SDMMC_CmdEraseEndAdd:0000000000000000 SDMMC_CmdEraseEndAdd
     /tmp/cc3JF8Cu.s:1729   .text.SDMMC_CmdErase:0000000000000000 $t
     /tmp/cc3JF8Cu.s:1736   .text.SDMMC_CmdErase:0000000000000000 SDMMC_CmdErase
     /tmp/cc3JF8Cu.s:1787   .text.SDMMC_CmdStopTransfer:0000000000000000 $t
     /tmp/cc3JF8Cu.s:1794   .text.SDMMC_CmdStopTransfer:0000000000000000 SDMMC_CmdStopTransfer
     /tmp/cc3JF8Cu.s:1845   .text.SDMMC_CmdStopTransfer:0000000000000030 $d
     /tmp/cc3JF8Cu.s:1850   .text.SDMMC_CmdSelDesel:0000000000000000 $t
     /tmp/cc3JF8Cu.s:1857   .text.SDMMC_CmdSelDesel:0000000000000000 SDMMC_CmdSelDesel
     /tmp/cc3JF8Cu.s:1908   .text.SDMMC_CmdGoIdleState:0000000000000000 $t
     /tmp/cc3JF8Cu.s:1915   .text.SDMMC_CmdGoIdleState:0000000000000000 SDMMC_CmdGoIdleState
     /tmp/cc3JF8Cu.s:1961   .text.SDMMC_CmdOperCond:0000000000000000 $t
     /tmp/cc3JF8Cu.s:1968   .text.SDMMC_CmdOperCond:0000000000000000 SDMMC_CmdOperCond
     /tmp/cc3JF8Cu.s:2017   .text.SDMMC_CmdAppCommand:0000000000000000 $t
     /tmp/cc3JF8Cu.s:2024   .text.SDMMC_CmdAppCommand:0000000000000000 SDMMC_CmdAppCommand
     /tmp/cc3JF8Cu.s:2076   .text.SDMMC_CmdAppOperCommand:0000000000000000 $t
     /tmp/cc3JF8Cu.s:2083   .text.SDMMC_CmdAppOperCommand:0000000000000000 SDMMC_CmdAppOperCommand
     /tmp/cc3JF8Cu.s:2134   .text.SDMMC_CmdBusWidth:0000000000000000 $t
     /tmp/cc3JF8Cu.s:2141   .text.SDMMC_CmdBusWidth:0000000000000000 SDMMC_CmdBusWidth
     /tmp/cc3JF8Cu.s:2193   .text.SDMMC_CmdSendSCR:0000000000000000 $t
     /tmp/cc3JF8Cu.s:2200   .text.SDMMC_CmdSendSCR:0000000000000000 SDMMC_CmdSendSCR
     /tmp/cc3JF8Cu.s:2251   .text.SDMMC_CmdSendCID:0000000000000000 $t
     /tmp/cc3JF8Cu.s:2258   .text.SDMMC_CmdSendCID:0000000000000000 SDMMC_CmdSendCID
     /tmp/cc3JF8Cu.s:2306   .text.SDMMC_CmdSendCSD:0000000000000000 $t
     /tmp/cc3JF8Cu.s:2313   .text.SDMMC_CmdSendCSD:0000000000000000 SDMMC_CmdSendCSD
     /tmp/cc3JF8Cu.s:2362   .text.SDMMC_CmdSetRelAdd:0000000000000000 $t
     /tmp/cc3JF8Cu.s:2369   .text.SDMMC_CmdSetRelAdd:0000000000000000 SDMMC_CmdSetRelAdd
     /tmp/cc3JF8Cu.s:2423   .text.SDMMC_CmdSendStatus:0000000000000000 $t
     /tmp/cc3JF8Cu.s:2430   .text.SDMMC_CmdSendStatus:0000000000000000 SDMMC_CmdSendStatus
     /tmp/cc3JF8Cu.s:2482   .text.SDMMC_CmdStatusRegister:0000000000000000 $t
     /tmp/cc3JF8Cu.s:2489   .text.SDMMC_CmdStatusRegister:0000000000000000 SDMMC_CmdStatusRegister
     /tmp/cc3JF8Cu.s:2540   .text.SDMMC_CmdOpCondition:0000000000000000 $t
     /tmp/cc3JF8Cu.s:2547   .text.SDMMC_CmdOpCondition:0000000000000000 SDMMC_CmdOpCondition
     /tmp/cc3JF8Cu.s:2596   .text.SDMMC_CmdSwitch:0000000000000000 $t
     /tmp/cc3JF8Cu.s:2603   .text.SDMMC_CmdSwitch:0000000000000000 SDMMC_CmdSwitch
                     .debug_frame:0000000000000010 $d

UNDEFINED SYMBOLS
SystemCoreClock
HAL_Delay
